MPLINK 5.00, LINKER
Linker Map File - Created Thu May 17 02:58:13 2018

                                 Section Info
                  Section       Type    Address   Location Size(Bytes)
                ---------  ---------  ---------  ---------  ---------
               _entry_scn       code   0x000000    program   0x000006
                   .cinit    romdata   0x000006    program   0x000002
              high_vector       code   0x000008    program   0x000006
           .code___init.o       code   0x00000e    program   0x000002
        .romdata___init.o    romdata   0x000010    program   0x000000
        .idata___init.o_i    romdata   0x000010    program   0x000000
        .romdata_uwrite.o    romdata   0x000010    program   0x000000
        .idata_uwrite.o_i    romdata   0x000010    program   0x000000
      .romdata_spi_writ.o    romdata   0x000010    program   0x000000
      .idata_spi_writ.o_i    romdata   0x000010    program   0x000000
            .code_udefs.o       code   0x000010    program   0x000000
         .romdata_udefs.o    romdata   0x000010    program   0x000000
         .idata_udefs.o_i    romdata   0x000010    program   0x000000
         .romdata_uread.o    romdata   0x000010    program   0x000000
         .idata_uread.o_i    romdata   0x000010    program   0x000000
        .romdata_t0open.o    romdata   0x000010    program   0x000000
        .idata_t0open.o_i    romdata   0x000010    program   0x000000
      .romdata_spi_open.o    romdata   0x000010    program   0x000000
      .idata_spi_open.o_i    romdata   0x000010    program   0x000000
         .idata_c018i.o_i    romdata   0x000010    program   0x000000
         .romdata_c018i.o    romdata   0x000010    program   0x000000
            .code_c018i.o       code   0x000010    program   0x000000
          .idata_main.o_i    romdata   0x000010    program   0x000000
             .stringtable    romdata   0x000010    program   0x000000
               low_vector       code   0x000018    program   0x0001f8
             .code_main.o       code   0x000210    program   0x000cfa
               _cinit_scn       code   0x000f0a    program   0x00009e
         .code_spi_open.o       code   0x000fa8    program   0x00006a
            .code_uread.o       code   0x001012    program   0x00003e
         .code_spi_writ.o       code   0x001050    program   0x00003c
           .code_t0open.o       code   0x00108c    program   0x000038
             D10KTCYXCODE       code   0x0010c4    program   0x00002e
           .code_uwrite.o       code   0x0010f2    program   0x00002e
              D1KTCYXCODE       code   0x001120    program   0x000020
                    .code       code   0x001140    program   0x000020
             _startup_scn       code   0x001160    program   0x00001c
             D100TCYXCODE       code   0x00117c    program   0x00001c
          .romdata_main.o    romdata   0x001198    program   0x000015
    .config_300001_main.o    romdata   0x300001    program   0x000001
    .config_300002_main.o    romdata   0x300002    program   0x000001
    .config_300003_main.o    romdata   0x300003    program   0x000001
    .config_300005_main.o    romdata   0x300005    program   0x000001
    .config_300006_main.o    romdata   0x300006    program   0x000001
                MATH_DATA      udata   0x000000       data   0x000002
                 .tmpdata      udata   0x000002       data   0x000002
                DELAYDAT2      udata   0x000004       data   0x000001
                DELAYDAT1      udata   0x000005       data   0x000001
                char_vars      udata   0x000060       data   0x000061
                 int_vars      udata   0x0000c1       data   0x00002a
           .udata_c018i.o      udata   0x0000eb       data   0x00000a
           .udata_udefs.o      udata   0x0000f5       data   0x000001
          .idata___init.o      idata   0x0000f6       data   0x000000
          .udata___init.o      udata   0x0000f6       data   0x000000
          .idata_uwrite.o      idata   0x0000f6       data   0x000000
          .udata_uwrite.o      udata   0x0000f6       data   0x000000
        .idata_spi_writ.o      idata   0x0000f6       data   0x000000
        .udata_spi_writ.o      udata   0x0000f6       data   0x000000
           .idata_udefs.o      idata   0x0000f6       data   0x000000
           .idata_uread.o      idata   0x0000f6       data   0x000000
           .udata_uread.o      udata   0x0000f6       data   0x000000
          .idata_t0open.o      idata   0x0000f6       data   0x000000
          .udata_t0open.o      udata   0x0000f6       data   0x000000
        .idata_spi_open.o      idata   0x0000f6       data   0x000000
        .udata_spi_open.o      udata   0x0000f6       data   0x000000
            .idata_main.o      idata   0x0000f6       data   0x000000
            .udata_main.o      udata   0x0000f6       data   0x000000
           .idata_c018i.o      idata   0x0000f6       data   0x000000
                   .stack      udata   0x000100       data   0x000100
            SFR_UNBANKED0      udata   0x000f77       data   0x000089



                              Program Memory Usage 
                               Start         End      
                           ---------   ---------      
                            0x000000    0x00000f      
                            0x000018    0x0011ac      
                            0x300001    0x300003      
                            0x300005    0x300006      
            4522 out of 8472 program addresses used, program memory utilization is 53%



                              Symbols - Sorted by Name
                     Name    Address   Location    Storage File                     
                ---------  ---------  ---------  --------- ---------                
               CharTo7seg   0x000b14    program     extern C:\Users\eldar\Desktop\LINIJA 2 Mikser sirovine\fw\v1.04\SKC.X\main.c
              CommService   0x000758    program     extern C:\Users\eldar\Desktop\LINIJA 2 Mikser sirovine\fw\v1.04\SKC.X\main.c
                   D100_1   0x00118a    program     static E:\3.46\pic18-lt\cxx-framework\src\traditional\delays\d100tcyx.asm
                    D100x   0x001188    program     static E:\3.46\pic18-lt\cxx-framework\src\traditional\delays\d100tcyx.asm
                   D10K_1   0x0010d0    program     static E:\3.46\pic18-lt\cxx-framework\src\traditional\delays\d10ktcyx.asm
                    D10Kl   0x0010dc    program     static E:\3.46\pic18-lt\cxx-framework\src\traditional\delays\d10ktcyx.asm
                    D10Kx   0x0010ce    program     static E:\3.46\pic18-lt\cxx-framework\src\traditional\delays\d10ktcyx.asm
                    D1K_1   0x00112c    program     static E:\3.46\pic18-lt\cxx-framework\src\traditional\delays\d1ktcyx.asm
                     D1Kx   0x00112a    program     static E:\3.46\pic18-lt\cxx-framework\src\traditional\delays\d1ktcyx.asm
             Delay100TCYx   0x00117c    program     extern E:\3.46\pic18-lt\cxx-framework\src\traditional\delays\d100tcyx.asm
             Delay10KTCYx   0x0010c4    program     extern E:\3.46\pic18-lt\cxx-framework\src\traditional\delays\d10ktcyx.asm
              Delay1KTCYx   0x001120    program     extern E:\3.46\pic18-lt\cxx-framework\src\traditional\delays\d1ktcyx.asm
           DisplayService   0x000a28    program     extern C:\Users\eldar\Desktop\LINIJA 2 Mikser sirovine\fw\v1.04\SKC.X\main.c
          EEPROM_ReadByte   0x000d08    program     extern C:\Users\eldar\Desktop\LINIJA 2 Mikser sirovine\fw\v1.04\SKC.X\main.c
           EEPROM_ReadInt   0x000d18    program     extern C:\Users\eldar\Desktop\LINIJA 2 Mikser sirovine\fw\v1.04\SKC.X\main.c
         EEPROM_WriteByte   0x000d70    program     extern C:\Users\eldar\Desktop\LINIJA 2 Mikser sirovine\fw\v1.04\SKC.X\main.c
          EEPROM_WriteInt   0x000dae    program     extern C:\Users\eldar\Desktop\LINIJA 2 Mikser sirovine\fw\v1.04\SKC.X\main.c
             ErrorService   0x00095c    program     extern C:\Users\eldar\Desktop\LINIJA 2 Mikser sirovine\fw\v1.04\SKC.X\main.c
               IO_Service   0x0002fa    program     extern C:\Users\eldar\Desktop\LINIJA 2 Mikser sirovine\fw\v1.04\SKC.X\main.c
                  InitRAM   0x000280    program     extern C:\Users\eldar\Desktop\LINIJA 2 Mikser sirovine\fw\v1.04\SKC.X\main.c
                  InitSYS   0x000210    program     extern C:\Users\eldar\Desktop\LINIJA 2 Mikser sirovine\fw\v1.04\SKC.X\main.c
                  OpenSPI   0x000fa8    program     extern E:\3.46\pic18-lt\cxx-framework\src\pmc_common\SPI\spi_open.c
               OpenTimer0   0x00108c    program     extern E:\3.46\pic18-lt\cxx-framework\src\pmc_common\Timers\t0open.c
                ReadUSART   0x001012    program     extern E:\3.46\pic18-lt\cxx-framework\src\pmc_common\USART\uread.c
            SignalService   0x00090e    program     extern C:\Users\eldar\Desktop\LINIJA 2 Mikser sirovine\fw\v1.04\SKC.X\main.c
                 WriteSPI   0x001050    program     extern E:\3.46\pic18-lt\cxx-framework\src\pmc_common\SPI\spi_writ.c
               WriteUSART   0x0010f2    program     extern E:\3.46\pic18-lt\cxx-framework\src\pmc_common\USART\uwrite.c
       _D100TCYXCODE_0008   0x001184    program     static E:\3.46\pic18-lt\cxx-framework\src\traditional\delays\d100tcyx.asm
       _D100TCYXCODE_0012   0x00118e    program     static E:\3.46\pic18-lt\cxx-framework\src\traditional\delays\d100tcyx.asm
       _D100TCYXCODE_0018   0x001194    program     static E:\3.46\pic18-lt\cxx-framework\src\traditional\delays\d100tcyx.asm
       _D10KTCYXCODE_0010   0x0010d4    program     static E:\3.46\pic18-lt\cxx-framework\src\traditional\delays\d10ktcyx.asm
       _D10KTCYXCODE_001C   0x0010e0    program     static E:\3.46\pic18-lt\cxx-framework\src\traditional\delays\d10ktcyx.asm
        _D1KTCYXCODE_0010   0x001130    program     static E:\3.46\pic18-lt\cxx-framework\src\traditional\delays\d1ktcyx.asm
        _D1KTCYXCODE_0016   0x001136    program     static E:\3.46\pic18-lt\cxx-framework\src\traditional\delays\d1ktcyx.asm
       ___return_lbl00000   0x00000c    program     static                          
       ___return_lbl00000   0x000004    program     static                          
       ___return_lbl00001   0x00001c    program     static                          
       ___return_lbl00001   0x00117a    program     static                          
       ___return_lbl00002   0x000fa6    program     static                          
               __config_0   0x300001    program     static C:\Users\eldar\Desktop\LINIJA 2 Mikser sirovine\fw\v1.04\SKC.X\main.c
               __config_1   0x300002    program     static C:\Users\eldar\Desktop\LINIJA 2 Mikser sirovine\fw\v1.04\SKC.X\main.c
               __config_2   0x300003    program     static C:\Users\eldar\Desktop\LINIJA 2 Mikser sirovine\fw\v1.04\SKC.X\main.c
               __config_3   0x300005    program     static C:\Users\eldar\Desktop\LINIJA 2 Mikser sirovine\fw\v1.04\SKC.X\main.c
               __config_4   0x300006    program     static C:\Users\eldar\Desktop\LINIJA 2 Mikser sirovine\fw\v1.04\SKC.X\main.c
                   __init   0x00000e    program     extern E:\3.46\pic18-lt\cxx-framework\src\traditional\stdclib\__init.c
                   __pa_0   0x000de0    program     static C:\Users\eldar\Desktop\LINIJA 2 Mikser sirovine\fw\v1.04\SKC.X\main.c
                   __pa_1   0x000dea    program     static C:\Users\eldar\Desktop\LINIJA 2 Mikser sirovine\fw\v1.04\SKC.X\main.c
                  __pa_10   0x000e7e    program     static C:\Users\eldar\Desktop\LINIJA 2 Mikser sirovine\fw\v1.04\SKC.X\main.c
                  __pa_11   0x000e8c    program     static C:\Users\eldar\Desktop\LINIJA 2 Mikser sirovine\fw\v1.04\SKC.X\main.c
                  __pa_12   0x000e96    program     static C:\Users\eldar\Desktop\LINIJA 2 Mikser sirovine\fw\v1.04\SKC.X\main.c
                  __pa_13   0x000ea0    program     static C:\Users\eldar\Desktop\LINIJA 2 Mikser sirovine\fw\v1.04\SKC.X\main.c
                  __pa_14   0x000eaa    program     static C:\Users\eldar\Desktop\LINIJA 2 Mikser sirovine\fw\v1.04\SKC.X\main.c
                  __pa_15   0x000eb2    program     static C:\Users\eldar\Desktop\LINIJA 2 Mikser sirovine\fw\v1.04\SKC.X\main.c
                  __pa_16   0x000ebc    program     static C:\Users\eldar\Desktop\LINIJA 2 Mikser sirovine\fw\v1.04\SKC.X\main.c
                  __pa_17   0x000ec6    program     static C:\Users\eldar\Desktop\LINIJA 2 Mikser sirovine\fw\v1.04\SKC.X\main.c
                  __pa_18   0x000ed0    program     static C:\Users\eldar\Desktop\LINIJA 2 Mikser sirovine\fw\v1.04\SKC.X\main.c
                  __pa_19   0x000eda    program     static C:\Users\eldar\Desktop\LINIJA 2 Mikser sirovine\fw\v1.04\SKC.X\main.c
                   __pa_2   0x000e00    program     static C:\Users\eldar\Desktop\LINIJA 2 Mikser sirovine\fw\v1.04\SKC.X\main.c
                  __pa_20   0x000ee8    program     static C:\Users\eldar\Desktop\LINIJA 2 Mikser sirovine\fw\v1.04\SKC.X\main.c
                  __pa_21   0x000ef6    program     static C:\Users\eldar\Desktop\LINIJA 2 Mikser sirovine\fw\v1.04\SKC.X\main.c
                  __pa_22   0x000f02    program     static C:\Users\eldar\Desktop\LINIJA 2 Mikser sirovine\fw\v1.04\SKC.X\main.c
                   __pa_3   0x000e08    program     static C:\Users\eldar\Desktop\LINIJA 2 Mikser sirovine\fw\v1.04\SKC.X\main.c
                   __pa_4   0x000e32    program     static C:\Users\eldar\Desktop\LINIJA 2 Mikser sirovine\fw\v1.04\SKC.X\main.c
                   __pa_5   0x000e3c    program     static C:\Users\eldar\Desktop\LINIJA 2 Mikser sirovine\fw\v1.04\SKC.X\main.c
                   __pa_6   0x000e44    program     static C:\Users\eldar\Desktop\LINIJA 2 Mikser sirovine\fw\v1.04\SKC.X\main.c
                   __pa_7   0x000e54    program     static C:\Users\eldar\Desktop\LINIJA 2 Mikser sirovine\fw\v1.04\SKC.X\main.c
                   __pa_8   0x000e6a    program     static C:\Users\eldar\Desktop\LINIJA 2 Mikser sirovine\fw\v1.04\SKC.X\main.c
                   __pa_9   0x000e76    program     static C:\Users\eldar\Desktop\LINIJA 2 Mikser sirovine\fw\v1.04\SKC.X\main.c
            __zero_memory   0x001140    program     extern E:\3.46\pic18-lt\cxx-framework\src\traditional\proc\p18f23k20.asm
                _do_cinit   0x000f0a    program     extern E:\3.46\pic18-lt\cxx-framework\src\traditional\startup\c018i.c
                   _entry   0x000000    program     extern E:\3.46\pic18-lt\cxx-framework\src\traditional\startup\c018i.c
                 _startup   0x001160    program     extern E:\3.46\pic18-lt\cxx-framework\src\traditional\startup\c018i.c
                compare_l   0x001156    program     static E:\3.46\pic18-lt\cxx-framework\src\traditional\proc\p18f23k20.asm
                copy_loop   0x000f7c    program     static                          
            copy_one_byte   0x000f82    program     static                          
                     done   0x000fa6    program     static                          
             done_copying   0x000f90    program     static                          
               error_msg1   0x001198    program     extern C:\Users\eldar\Desktop\LINIJA 2 Mikser sirovine\fw\v1.04\SKC.X\main.h
                 high_isr   0x00001e    program     extern C:\Users\eldar\Desktop\LINIJA 2 Mikser sirovine\fw\v1.04\SKC.X\main.c
 interrupt_at_high_vector   0x000008    program     extern C:\Users\eldar\Desktop\LINIJA 2 Mikser sirovine\fw\v1.04\SKC.X\main.c
  interrupt_at_low_vector   0x000018    program     extern C:\Users\eldar\Desktop\LINIJA 2 Mikser sirovine\fw\v1.04\SKC.X\main.c
                     loop   0x001170    program     static                          
                   loop_h   0x00114e    program     static E:\3.46\pic18-lt\cxx-framework\src\traditional\proc\p18f23k20.asm
                   loop_l   0x001158    program     static E:\3.46\pic18-lt\cxx-framework\src\traditional\proc\p18f23k20.asm
                  low_isr   0x000186    program     extern C:\Users\eldar\Desktop\LINIJA 2 Mikser sirovine\fw\v1.04\SKC.X\main.c
                     main   0x0002ea    program     extern C:\Users\eldar\Desktop\LINIJA 2 Mikser sirovine\fw\v1.04\SKC.X\main.c
                     test   0x000f24    program     static                          
               zero_block   0x00114e    program     static E:\3.46\pic18-lt\cxx-framework\src\traditional\proc\p18f23k20.asm
                   ADCON0   0x000fc2       data     extern E:\3.46\pic18-lt\cxx-framework\src\traditional\proc\p18f23k20.asm
               ADCON0bits   0x000fc2       data     extern E:\3.46\pic18-lt\cxx-framework\src\traditional\proc\p18f23k20.asm
                   ADCON1   0x000fc1       data     extern E:\3.46\pic18-lt\cxx-framework\src\traditional\proc\p18f23k20.asm
               ADCON1bits   0x000fc1       data     extern E:\3.46\pic18-lt\cxx-framework\src\traditional\proc\p18f23k20.asm
                   ADCON2   0x000fc0       data     extern E:\3.46\pic18-lt\cxx-framework\src\traditional\proc\p18f23k20.asm
               ADCON2bits   0x000fc0       data     extern E:\3.46\pic18-lt\cxx-framework\src\traditional\proc\p18f23k20.asm
                    ADRES   0x000fc3       data     extern E:\3.46\pic18-lt\cxx-framework\src\traditional\proc\p18f23k20.asm
                   ADRESH   0x000fc4       data     extern E:\3.46\pic18-lt\cxx-framework\src\traditional\proc\p18f23k20.asm
                   ADRESL   0x000fc3       data     extern E:\3.46\pic18-lt\cxx-framework\src\traditional\proc\p18f23k20.asm
                    ANSEL   0x000f7e       data     extern E:\3.46\pic18-lt\cxx-framework\src\traditional\proc\p18f23k20.asm
                   ANSELH   0x000f7f       data     extern E:\3.46\pic18-lt\cxx-framework\src\traditional\proc\p18f23k20.asm
               ANSELHbits   0x000f7f       data     extern E:\3.46\pic18-lt\cxx-framework\src\traditional\proc\p18f23k20.asm
                ANSELbits   0x000f7e       data     extern E:\3.46\pic18-lt\cxx-framework\src\traditional\proc\p18f23k20.asm
                  BAUDCON   0x000fb8       data     extern E:\3.46\pic18-lt\cxx-framework\src\traditional\proc\p18f23k20.asm
              BAUDCONbits   0x000fb8       data     extern E:\3.46\pic18-lt\cxx-framework\src\traditional\proc\p18f23k20.asm
                  BAUDCTL   0x000fb8       data     extern E:\3.46\pic18-lt\cxx-framework\src\traditional\proc\p18f23k20.asm
              BAUDCTLbits   0x000fb8       data     extern E:\3.46\pic18-lt\cxx-framework\src\traditional\proc\p18f23k20.asm
                      BSR   0x000fe0       data     extern E:\3.46\pic18-lt\cxx-framework\src\traditional\proc\p18f23k20.asm
                  CCP1CON   0x000fbd       data     extern E:\3.46\pic18-lt\cxx-framework\src\traditional\proc\p18f23k20.asm
              CCP1CONbits   0x000fbd       data     extern E:\3.46\pic18-lt\cxx-framework\src\traditional\proc\p18f23k20.asm
                  CCP2CON   0x000fba       data     extern E:\3.46\pic18-lt\cxx-framework\src\traditional\proc\p18f23k20.asm
              CCP2CONbits   0x000fba       data     extern E:\3.46\pic18-lt\cxx-framework\src\traditional\proc\p18f23k20.asm
                    CCPR1   0x000fbe       data     extern E:\3.46\pic18-lt\cxx-framework\src\traditional\proc\p18f23k20.asm
                   CCPR1H   0x000fbf       data     extern E:\3.46\pic18-lt\cxx-framework\src\traditional\proc\p18f23k20.asm
                   CCPR1L   0x000fbe       data     extern E:\3.46\pic18-lt\cxx-framework\src\traditional\proc\p18f23k20.asm
                    CCPR2   0x000fbb       data     extern E:\3.46\pic18-lt\cxx-framework\src\traditional\proc\p18f23k20.asm
                   CCPR2H   0x000fbc       data     extern E:\3.46\pic18-lt\cxx-framework\src\traditional\proc\p18f23k20.asm
                   CCPR2L   0x000fbb       data     extern E:\3.46\pic18-lt\cxx-framework\src\traditional\proc\p18f23k20.asm
                  CM1CON0   0x000f7b       data     extern E:\3.46\pic18-lt\cxx-framework\src\traditional\proc\p18f23k20.asm
              CM1CON0bits   0x000f7b       data     extern E:\3.46\pic18-lt\cxx-framework\src\traditional\proc\p18f23k20.asm
                  CM2CON0   0x000f7a       data     extern E:\3.46\pic18-lt\cxx-framework\src\traditional\proc\p18f23k20.asm
              CM2CON0bits   0x000f7a       data     extern E:\3.46\pic18-lt\cxx-framework\src\traditional\proc\p18f23k20.asm
                  CM2CON1   0x000f79       data     extern E:\3.46\pic18-lt\cxx-framework\src\traditional\proc\p18f23k20.asm
              CM2CON1bits   0x000f79       data     extern E:\3.46\pic18-lt\cxx-framework\src\traditional\proc\p18f23k20.asm
                   CVRCON   0x000fb5       data     extern E:\3.46\pic18-lt\cxx-framework\src\traditional\proc\p18f23k20.asm
                  CVRCON2   0x000fb4       data     extern E:\3.46\pic18-lt\cxx-framework\src\traditional\proc\p18f23k20.asm
              CVRCON2bits   0x000fb4       data     extern E:\3.46\pic18-lt\cxx-framework\src\traditional\proc\p18f23k20.asm
               CVRCONbits   0x000fb5       data     extern E:\3.46\pic18-lt\cxx-framework\src\traditional\proc\p18f23k20.asm
                     DDRA   0x000f92       data     extern E:\3.46\pic18-lt\cxx-framework\src\traditional\proc\p18f23k20.asm
                 DDRAbits   0x000f92       data     extern E:\3.46\pic18-lt\cxx-framework\src\traditional\proc\p18f23k20.asm
                     DDRB   0x000f93       data     extern E:\3.46\pic18-lt\cxx-framework\src\traditional\proc\p18f23k20.asm
                 DDRBbits   0x000f93       data     extern E:\3.46\pic18-lt\cxx-framework\src\traditional\proc\p18f23k20.asm
                     DDRC   0x000f94       data     extern E:\3.46\pic18-lt\cxx-framework\src\traditional\proc\p18f23k20.asm
                 DDRCbits   0x000f94       data     extern E:\3.46\pic18-lt\cxx-framework\src\traditional\proc\p18f23k20.asm
            DelayCounter1   0x000005       data     extern E:\3.46\pic18-lt\cxx-framework\src\traditional\delays\delayd1.asm
            DelayCounter2   0x000004       data     extern E:\3.46\pic18-lt\cxx-framework\src\traditional\delays\delayd2.asm
                  ECCP1AS   0x000fb6       data     extern E:\3.46\pic18-lt\cxx-framework\src\traditional\proc\p18f23k20.asm
              ECCP1ASbits   0x000fb6       data     extern E:\3.46\pic18-lt\cxx-framework\src\traditional\proc\p18f23k20.asm
                    EEADR   0x000fa9       data     extern E:\3.46\pic18-lt\cxx-framework\src\traditional\proc\p18f23k20.asm
                EEADRbits   0x000fa9       data     extern E:\3.46\pic18-lt\cxx-framework\src\traditional\proc\p18f23k20.asm
                   EECON1   0x000fa6       data     extern E:\3.46\pic18-lt\cxx-framework\src\traditional\proc\p18f23k20.asm
               EECON1bits   0x000fa6       data     extern E:\3.46\pic18-lt\cxx-framework\src\traditional\proc\p18f23k20.asm
                   EECON2   0x000fa7       data     extern E:\3.46\pic18-lt\cxx-framework\src\traditional\proc\p18f23k20.asm
                   EEDATA   0x000fa8       data     extern E:\3.46\pic18-lt\cxx-framework\src\traditional\proc\p18f23k20.asm
                     FSR0   0x000fe9       data     extern E:\3.46\pic18-lt\cxx-framework\src\traditional\proc\p18f23k20.asm
                    FSR0H   0x000fea       data     extern E:\3.46\pic18-lt\cxx-framework\src\traditional\proc\p18f23k20.asm
                    FSR0L   0x000fe9       data     extern E:\3.46\pic18-lt\cxx-framework\src\traditional\proc\p18f23k20.asm
                     FSR1   0x000fe1       data     extern E:\3.46\pic18-lt\cxx-framework\src\traditional\proc\p18f23k20.asm
                    FSR1H   0x000fe2       data     extern E:\3.46\pic18-lt\cxx-framework\src\traditional\proc\p18f23k20.asm
                    FSR1L   0x000fe1       data     extern E:\3.46\pic18-lt\cxx-framework\src\traditional\proc\p18f23k20.asm
                     FSR2   0x000fd9       data     extern E:\3.46\pic18-lt\cxx-framework\src\traditional\proc\p18f23k20.asm
                    FSR2H   0x000fda       data     extern E:\3.46\pic18-lt\cxx-framework\src\traditional\proc\p18f23k20.asm
                    FSR2L   0x000fd9       data     extern E:\3.46\pic18-lt\cxx-framework\src\traditional\proc\p18f23k20.asm
                  HLVDCON   0x000fd2       data     extern E:\3.46\pic18-lt\cxx-framework\src\traditional\proc\p18f23k20.asm
              HLVDCONbits   0x000fd2       data     extern E:\3.46\pic18-lt\cxx-framework\src\traditional\proc\p18f23k20.asm
                    INDF0   0x000fef       data     extern E:\3.46\pic18-lt\cxx-framework\src\traditional\proc\p18f23k20.asm
                    INDF1   0x000fe7       data     extern E:\3.46\pic18-lt\cxx-framework\src\traditional\proc\p18f23k20.asm
                    INDF2   0x000fdf       data     extern E:\3.46\pic18-lt\cxx-framework\src\traditional\proc\p18f23k20.asm
                   INTCON   0x000ff2       data     extern E:\3.46\pic18-lt\cxx-framework\src\traditional\proc\p18f23k20.asm
                  INTCON2   0x000ff1       data     extern E:\3.46\pic18-lt\cxx-framework\src\traditional\proc\p18f23k20.asm
              INTCON2bits   0x000ff1       data     extern E:\3.46\pic18-lt\cxx-framework\src\traditional\proc\p18f23k20.asm
                  INTCON3   0x000ff0       data     extern E:\3.46\pic18-lt\cxx-framework\src\traditional\proc\p18f23k20.asm
              INTCON3bits   0x000ff0       data     extern E:\3.46\pic18-lt\cxx-framework\src\traditional\proc\p18f23k20.asm
               INTCONbits   0x000ff2       data     extern E:\3.46\pic18-lt\cxx-framework\src\traditional\proc\p18f23k20.asm
                     IOCB   0x000f7d       data     extern E:\3.46\pic18-lt\cxx-framework\src\traditional\proc\p18f23k20.asm
                 IOCBbits   0x000f7d       data     extern E:\3.46\pic18-lt\cxx-framework\src\traditional\proc\p18f23k20.asm
                     IPR1   0x000f9f       data     extern E:\3.46\pic18-lt\cxx-framework\src\traditional\proc\p18f23k20.asm
                 IPR1bits   0x000f9f       data     extern E:\3.46\pic18-lt\cxx-framework\src\traditional\proc\p18f23k20.asm
                     IPR2   0x000fa2       data     extern E:\3.46\pic18-lt\cxx-framework\src\traditional\proc\p18f23k20.asm
                 IPR2bits   0x000fa2       data     extern E:\3.46\pic18-lt\cxx-framework\src\traditional\proc\p18f23k20.asm
                     LATA   0x000f89       data     extern E:\3.46\pic18-lt\cxx-framework\src\traditional\proc\p18f23k20.asm
                 LATAbits   0x000f89       data     extern E:\3.46\pic18-lt\cxx-framework\src\traditional\proc\p18f23k20.asm
                     LATB   0x000f8a       data     extern E:\3.46\pic18-lt\cxx-framework\src\traditional\proc\p18f23k20.asm
                 LATBbits   0x000f8a       data     extern E:\3.46\pic18-lt\cxx-framework\src\traditional\proc\p18f23k20.asm
                     LATC   0x000f8b       data     extern E:\3.46\pic18-lt\cxx-framework\src\traditional\proc\p18f23k20.asm
                 LATCbits   0x000f8b       data     extern E:\3.46\pic18-lt\cxx-framework\src\traditional\proc\p18f23k20.asm
                   LVDCON   0x000fd2       data     extern E:\3.46\pic18-lt\cxx-framework\src\traditional\proc\p18f23k20.asm
               LVDCONbits   0x000fd2       data     extern E:\3.46\pic18-lt\cxx-framework\src\traditional\proc\p18f23k20.asm
                   OSCCON   0x000fd3       data     extern E:\3.46\pic18-lt\cxx-framework\src\traditional\proc\p18f23k20.asm
               OSCCONbits   0x000fd3       data     extern E:\3.46\pic18-lt\cxx-framework\src\traditional\proc\p18f23k20.asm
                  OSCTUNE   0x000f9b       data     extern E:\3.46\pic18-lt\cxx-framework\src\traditional\proc\p18f23k20.asm
              OSCTUNEbits   0x000f9b       data     extern E:\3.46\pic18-lt\cxx-framework\src\traditional\proc\p18f23k20.asm
                       PC   0x000ff9       data     extern E:\3.46\pic18-lt\cxx-framework\src\traditional\proc\p18f23k20.asm
                      PCL   0x000ff9       data     extern E:\3.46\pic18-lt\cxx-framework\src\traditional\proc\p18f23k20.asm
                   PCLATH   0x000ffa       data     extern E:\3.46\pic18-lt\cxx-framework\src\traditional\proc\p18f23k20.asm
                   PCLATU   0x000ffb       data     extern E:\3.46\pic18-lt\cxx-framework\src\traditional\proc\p18f23k20.asm
                     PIE1   0x000f9d       data     extern E:\3.46\pic18-lt\cxx-framework\src\traditional\proc\p18f23k20.asm
                 PIE1bits   0x000f9d       data     extern E:\3.46\pic18-lt\cxx-framework\src\traditional\proc\p18f23k20.asm
                     PIE2   0x000fa0       data     extern E:\3.46\pic18-lt\cxx-framework\src\traditional\proc\p18f23k20.asm
                 PIE2bits   0x000fa0       data     extern E:\3.46\pic18-lt\cxx-framework\src\traditional\proc\p18f23k20.asm
                     PIR1   0x000f9e       data     extern E:\3.46\pic18-lt\cxx-framework\src\traditional\proc\p18f23k20.asm
                 PIR1bits   0x000f9e       data     extern E:\3.46\pic18-lt\cxx-framework\src\traditional\proc\p18f23k20.asm
                     PIR2   0x000fa1       data     extern E:\3.46\pic18-lt\cxx-framework\src\traditional\proc\p18f23k20.asm
                 PIR2bits   0x000fa1       data     extern E:\3.46\pic18-lt\cxx-framework\src\traditional\proc\p18f23k20.asm
                   PLUSW0   0x000feb       data     extern E:\3.46\pic18-lt\cxx-framework\src\traditional\proc\p18f23k20.asm
                   PLUSW1   0x000fe3       data     extern E:\3.46\pic18-lt\cxx-framework\src\traditional\proc\p18f23k20.asm
                   PLUSW2   0x000fdb       data     extern E:\3.46\pic18-lt\cxx-framework\src\traditional\proc\p18f23k20.asm
                    PORTA   0x000f80       data     extern E:\3.46\pic18-lt\cxx-framework\src\traditional\proc\p18f23k20.asm
                PORTAbits   0x000f80       data     extern E:\3.46\pic18-lt\cxx-framework\src\traditional\proc\p18f23k20.asm
                    PORTB   0x000f81       data     extern E:\3.46\pic18-lt\cxx-framework\src\traditional\proc\p18f23k20.asm
                PORTBbits   0x000f81       data     extern E:\3.46\pic18-lt\cxx-framework\src\traditional\proc\p18f23k20.asm
                    PORTC   0x000f82       data     extern E:\3.46\pic18-lt\cxx-framework\src\traditional\proc\p18f23k20.asm
                PORTCbits   0x000f82       data     extern E:\3.46\pic18-lt\cxx-framework\src\traditional\proc\p18f23k20.asm
                    PORTE   0x000f84       data     extern E:\3.46\pic18-lt\cxx-framework\src\traditional\proc\p18f23k20.asm
                PORTEbits   0x000f84       data     extern E:\3.46\pic18-lt\cxx-framework\src\traditional\proc\p18f23k20.asm
                 POSTDEC0   0x000fed       data     extern E:\3.46\pic18-lt\cxx-framework\src\traditional\proc\p18f23k20.asm
                 POSTDEC1   0x000fe5       data     extern E:\3.46\pic18-lt\cxx-framework\src\traditional\proc\p18f23k20.asm
                 POSTDEC2   0x000fdd       data     extern E:\3.46\pic18-lt\cxx-framework\src\traditional\proc\p18f23k20.asm
                 POSTINC0   0x000fee       data     extern E:\3.46\pic18-lt\cxx-framework\src\traditional\proc\p18f23k20.asm
                 POSTINC1   0x000fe6       data     extern E:\3.46\pic18-lt\cxx-framework\src\traditional\proc\p18f23k20.asm
                 POSTINC2   0x000fde       data     extern E:\3.46\pic18-lt\cxx-framework\src\traditional\proc\p18f23k20.asm
                      PR2   0x000fcb       data     extern E:\3.46\pic18-lt\cxx-framework\src\traditional\proc\p18f23k20.asm
                  PREINC0   0x000fec       data     extern E:\3.46\pic18-lt\cxx-framework\src\traditional\proc\p18f23k20.asm
                  PREINC1   0x000fe4       data     extern E:\3.46\pic18-lt\cxx-framework\src\traditional\proc\p18f23k20.asm
                  PREINC2   0x000fdc       data     extern E:\3.46\pic18-lt\cxx-framework\src\traditional\proc\p18f23k20.asm
                     PROD   0x000ff3       data     extern E:\3.46\pic18-lt\cxx-framework\src\traditional\proc\p18f23k20.asm
                    PRODH   0x000ff4       data     extern E:\3.46\pic18-lt\cxx-framework\src\traditional\proc\p18f23k20.asm
                    PRODL   0x000ff3       data     extern E:\3.46\pic18-lt\cxx-framework\src\traditional\proc\p18f23k20.asm
                  PSTRCON   0x000fb9       data     extern E:\3.46\pic18-lt\cxx-framework\src\traditional\proc\p18f23k20.asm
              PSTRCONbits   0x000fb9       data     extern E:\3.46\pic18-lt\cxx-framework\src\traditional\proc\p18f23k20.asm
                  PWM1CON   0x000fb7       data     extern E:\3.46\pic18-lt\cxx-framework\src\traditional\proc\p18f23k20.asm
              PWM1CONbits   0x000fb7       data     extern E:\3.46\pic18-lt\cxx-framework\src\traditional\proc\p18f23k20.asm
                     RCON   0x000fd0       data     extern E:\3.46\pic18-lt\cxx-framework\src\traditional\proc\p18f23k20.asm
                 RCONbits   0x000fd0       data     extern E:\3.46\pic18-lt\cxx-framework\src\traditional\proc\p18f23k20.asm
                    RCREG   0x000fae       data     extern E:\3.46\pic18-lt\cxx-framework\src\traditional\proc\p18f23k20.asm
                    RCSTA   0x000fab       data     extern E:\3.46\pic18-lt\cxx-framework\src\traditional\proc\p18f23k20.asm
                RCSTAbits   0x000fab       data     extern E:\3.46\pic18-lt\cxx-framework\src\traditional\proc\p18f23k20.asm
                     SIGN   0x000000       data     extern E:\3.46\pic18-lt\cxx-framework\src\traditional\math\cmath18.asm
                   SLRCON   0x000f78       data     extern E:\3.46\pic18-lt\cxx-framework\src\traditional\proc\p18f23k20.asm
               SLRCONbits   0x000f78       data     extern E:\3.46\pic18-lt\cxx-framework\src\traditional\proc\p18f23k20.asm
                    SPBRG   0x000faf       data     extern E:\3.46\pic18-lt\cxx-framework\src\traditional\proc\p18f23k20.asm
                   SPBRGH   0x000fb0       data     extern E:\3.46\pic18-lt\cxx-framework\src\traditional\proc\p18f23k20.asm
                   SSPADD   0x000fc8       data     extern E:\3.46\pic18-lt\cxx-framework\src\traditional\proc\p18f23k20.asm
                   SSPBUF   0x000fc9       data     extern E:\3.46\pic18-lt\cxx-framework\src\traditional\proc\p18f23k20.asm
                  SSPCON1   0x000fc6       data     extern E:\3.46\pic18-lt\cxx-framework\src\traditional\proc\p18f23k20.asm
              SSPCON1bits   0x000fc6       data     extern E:\3.46\pic18-lt\cxx-framework\src\traditional\proc\p18f23k20.asm
                  SSPCON2   0x000fc5       data     extern E:\3.46\pic18-lt\cxx-framework\src\traditional\proc\p18f23k20.asm
              SSPCON2bits   0x000fc5       data     extern E:\3.46\pic18-lt\cxx-framework\src\traditional\proc\p18f23k20.asm
                   SSPMSK   0x000f77       data     extern E:\3.46\pic18-lt\cxx-framework\src\traditional\proc\p18f23k20.asm
               SSPMSKbits   0x000f77       data     extern E:\3.46\pic18-lt\cxx-framework\src\traditional\proc\p18f23k20.asm
                  SSPSTAT   0x000fc7       data     extern E:\3.46\pic18-lt\cxx-framework\src\traditional\proc\p18f23k20.asm
              SSPSTATbits   0x000fc7       data     extern E:\3.46\pic18-lt\cxx-framework\src\traditional\proc\p18f23k20.asm
                   STATUS   0x000fd8       data     extern E:\3.46\pic18-lt\cxx-framework\src\traditional\proc\p18f23k20.asm
               STATUSbits   0x000fd8       data     extern E:\3.46\pic18-lt\cxx-framework\src\traditional\proc\p18f23k20.asm
                   STKPTR   0x000ffc       data     extern E:\3.46\pic18-lt\cxx-framework\src\traditional\proc\p18f23k20.asm
               STKPTRbits   0x000ffc       data     extern E:\3.46\pic18-lt\cxx-framework\src\traditional\proc\p18f23k20.asm
                    T0CON   0x000fd5       data     extern E:\3.46\pic18-lt\cxx-framework\src\traditional\proc\p18f23k20.asm
                T0CONbits   0x000fd5       data     extern E:\3.46\pic18-lt\cxx-framework\src\traditional\proc\p18f23k20.asm
                    T1CON   0x000fcd       data     extern E:\3.46\pic18-lt\cxx-framework\src\traditional\proc\p18f23k20.asm
                T1CONbits   0x000fcd       data     extern E:\3.46\pic18-lt\cxx-framework\src\traditional\proc\p18f23k20.asm
                    T2CON   0x000fca       data     extern E:\3.46\pic18-lt\cxx-framework\src\traditional\proc\p18f23k20.asm
                T2CONbits   0x000fca       data     extern E:\3.46\pic18-lt\cxx-framework\src\traditional\proc\p18f23k20.asm
                    T3CON   0x000fb1       data     extern E:\3.46\pic18-lt\cxx-framework\src\traditional\proc\p18f23k20.asm
                T3CONbits   0x000fb1       data     extern E:\3.46\pic18-lt\cxx-framework\src\traditional\proc\p18f23k20.asm
                   TABLAT   0x000ff5       data     extern E:\3.46\pic18-lt\cxx-framework\src\traditional\proc\p18f23k20.asm
                   TBLPTR   0x000ff6       data     extern E:\3.46\pic18-lt\cxx-framework\src\traditional\proc\p18f23k20.asm
                  TBLPTRH   0x000ff7       data     extern E:\3.46\pic18-lt\cxx-framework\src\traditional\proc\p18f23k20.asm
                  TBLPTRL   0x000ff6       data     extern E:\3.46\pic18-lt\cxx-framework\src\traditional\proc\p18f23k20.asm
                  TBLPTRU   0x000ff8       data     extern E:\3.46\pic18-lt\cxx-framework\src\traditional\proc\p18f23k20.asm
                    TMR0H   0x000fd7       data     extern E:\3.46\pic18-lt\cxx-framework\src\traditional\proc\p18f23k20.asm
                    TMR0L   0x000fd6       data     extern E:\3.46\pic18-lt\cxx-framework\src\traditional\proc\p18f23k20.asm
                    TMR1H   0x000fcf       data     extern E:\3.46\pic18-lt\cxx-framework\src\traditional\proc\p18f23k20.asm
                    TMR1L   0x000fce       data     extern E:\3.46\pic18-lt\cxx-framework\src\traditional\proc\p18f23k20.asm
                     TMR2   0x000fcc       data     extern E:\3.46\pic18-lt\cxx-framework\src\traditional\proc\p18f23k20.asm
                    TMR3H   0x000fb3       data     extern E:\3.46\pic18-lt\cxx-framework\src\traditional\proc\p18f23k20.asm
                    TMR3L   0x000fb2       data     extern E:\3.46\pic18-lt\cxx-framework\src\traditional\proc\p18f23k20.asm
                      TOS   0x000ffd       data     extern E:\3.46\pic18-lt\cxx-framework\src\traditional\proc\p18f23k20.asm
                     TOSH   0x000ffe       data     extern E:\3.46\pic18-lt\cxx-framework\src\traditional\proc\p18f23k20.asm
                     TOSL   0x000ffd       data     extern E:\3.46\pic18-lt\cxx-framework\src\traditional\proc\p18f23k20.asm
                     TOSU   0x000fff       data     extern E:\3.46\pic18-lt\cxx-framework\src\traditional\proc\p18f23k20.asm
                    TRISA   0x000f92       data     extern E:\3.46\pic18-lt\cxx-framework\src\traditional\proc\p18f23k20.asm
                TRISAbits   0x000f92       data     extern E:\3.46\pic18-lt\cxx-framework\src\traditional\proc\p18f23k20.asm
                    TRISB   0x000f93       data     extern E:\3.46\pic18-lt\cxx-framework\src\traditional\proc\p18f23k20.asm
                TRISBbits   0x000f93       data     extern E:\3.46\pic18-lt\cxx-framework\src\traditional\proc\p18f23k20.asm
                    TRISC   0x000f94       data     extern E:\3.46\pic18-lt\cxx-framework\src\traditional\proc\p18f23k20.asm
                TRISCbits   0x000f94       data     extern E:\3.46\pic18-lt\cxx-framework\src\traditional\proc\p18f23k20.asm
                    TXREG   0x000fad       data     extern E:\3.46\pic18-lt\cxx-framework\src\traditional\proc\p18f23k20.asm
                    TXSTA   0x000fac       data     extern E:\3.46\pic18-lt\cxx-framework\src\traditional\proc\p18f23k20.asm
                TXSTAbits   0x000fac       data     extern E:\3.46\pic18-lt\cxx-framework\src\traditional\proc\p18f23k20.asm
             USART_Status   0x0000f5       data     extern E:\3.46\pic18-lt\cxx-framework\src\pmc_common\USART\udefs.c
                        W   0x000fe8       data     extern E:\3.46\pic18-lt\cxx-framework\src\traditional\proc\p18f23k20.asm
                   WDTCON   0x000fd1       data     extern E:\3.46\pic18-lt\cxx-framework\src\traditional\proc\p18f23k20.asm
               WDTCONbits   0x000fd1       data     extern E:\3.46\pic18-lt\cxx-framework\src\traditional\proc\p18f23k20.asm
                     WPUB   0x000f7c       data     extern E:\3.46\pic18-lt\cxx-framework\src\traditional\proc\p18f23k20.asm
                 WPUBbits   0x000f7c       data     extern E:\3.46\pic18-lt\cxx-framework\src\traditional\proc\p18f23k20.asm
                     WREG   0x000fe8       data     extern E:\3.46\pic18-lt\cxx-framework\src\traditional\proc\p18f23k20.asm
                __FPFLAGS   0x000001       data     extern E:\3.46\pic18-lt\cxx-framework\src\traditional\math\cmath18.asm
            __FPFLAGSbits   0x000001       data     extern E:\3.46\pic18-lt\cxx-framework\src\traditional\math\cmath18.asm
                  __tmp_0   0x000002       data     static C:\Users\eldar\Desktop\LINIJA 2 Mikser sirovine\fw\v1.04\SKC.X\main.c
                 checksum   0x0000a6       data     extern C:\Users\eldar\Desktop\LINIJA 2 Mikser sirovine\fw\v1.04\SKC.X\main.h
                comm_buff   0x00006a       data     extern C:\Users\eldar\Desktop\LINIJA 2 Mikser sirovine\fw\v1.04\SKC.X\main.h
            comm_data_cnt   0x000065       data     extern C:\Users\eldar\Desktop\LINIJA 2 Mikser sirovine\fw\v1.04\SKC.X\main.h
             comm_err_cnt   0x0000a8       data     extern C:\Users\eldar\Desktop\LINIJA 2 Mikser sirovine\fw\v1.04\SKC.X\main.h
               comm_flags   0x0000ea       data     extern C:\Users\eldar\Desktop\LINIJA 2 Mikser sirovine\fw\v1.04\SKC.X\main.h
                comm_temp   0x0000a4       data     extern C:\Users\eldar\Desktop\LINIJA 2 Mikser sirovine\fw\v1.04\SKC.X\main.h
                curr_byte   0x0000ee       data     static E:\3.46\pic18-lt\cxx-framework\src\traditional\startup\c018i.c
               curr_entry   0x0000f0       data     static E:\3.46\pic18-lt\cxx-framework\src\traditional\startup\c018i.c
                 data_ptr   0x0000f2       data     static E:\3.46\pic18-lt\cxx-framework\src\traditional\startup\c018i.c
             display_mode   0x0000ac       data     extern C:\Users\eldar\Desktop\LINIJA 2 Mikser sirovine\fw\v1.04\SKC.X\main.h
             display_name   0x0000ad       data     extern C:\Users\eldar\Desktop\LINIJA 2 Mikser sirovine\fw\v1.04\SKC.X\main.h
                 dos1_ref   0x0000c1       data     extern C:\Users\eldar\Desktop\LINIJA 2 Mikser sirovine\fw\v1.04\SKC.X\main.h
                 dos2_ref   0x0000c3       data     extern C:\Users\eldar\Desktop\LINIJA 2 Mikser sirovine\fw\v1.04\SKC.X\main.h
                 dos3_ref   0x0000c5       data     extern C:\Users\eldar\Desktop\LINIJA 2 Mikser sirovine\fw\v1.04\SKC.X\main.h
                 dos4_ref   0x0000c7       data     extern C:\Users\eldar\Desktop\LINIJA 2 Mikser sirovine\fw\v1.04\SKC.X\main.h
                dsp1_dig1   0x0000b1       data     extern C:\Users\eldar\Desktop\LINIJA 2 Mikser sirovine\fw\v1.04\SKC.X\main.h
               dsp1_dig10   0x0000b0       data     extern C:\Users\eldar\Desktop\LINIJA 2 Mikser sirovine\fw\v1.04\SKC.X\main.h
              dsp1_dig100   0x0000af       data     extern C:\Users\eldar\Desktop\LINIJA 2 Mikser sirovine\fw\v1.04\SKC.X\main.h
                dsp2_dig1   0x0000b4       data     extern C:\Users\eldar\Desktop\LINIJA 2 Mikser sirovine\fw\v1.04\SKC.X\main.h
               dsp2_dig10   0x0000b3       data     extern C:\Users\eldar\Desktop\LINIJA 2 Mikser sirovine\fw\v1.04\SKC.X\main.h
              dsp2_dig100   0x0000b2       data     extern C:\Users\eldar\Desktop\LINIJA 2 Mikser sirovine\fw\v1.04\SKC.X\main.h
                dsp3_dig1   0x0000b7       data     extern C:\Users\eldar\Desktop\LINIJA 2 Mikser sirovine\fw\v1.04\SKC.X\main.h
               dsp3_dig10   0x0000b6       data     extern C:\Users\eldar\Desktop\LINIJA 2 Mikser sirovine\fw\v1.04\SKC.X\main.h
              dsp3_dig100   0x0000b5       data     extern C:\Users\eldar\Desktop\LINIJA 2 Mikser sirovine\fw\v1.04\SKC.X\main.h
                dsp4_dig1   0x0000ba       data     extern C:\Users\eldar\Desktop\LINIJA 2 Mikser sirovine\fw\v1.04\SKC.X\main.h
               dsp4_dig10   0x0000b9       data     extern C:\Users\eldar\Desktop\LINIJA 2 Mikser sirovine\fw\v1.04\SKC.X\main.h
              dsp4_dig100   0x0000b8       data     extern C:\Users\eldar\Desktop\LINIJA 2 Mikser sirovine\fw\v1.04\SKC.X\main.h
                dsp5_dig1   0x0000bd       data     extern C:\Users\eldar\Desktop\LINIJA 2 Mikser sirovine\fw\v1.04\SKC.X\main.h
               dsp5_dig10   0x0000bc       data     extern C:\Users\eldar\Desktop\LINIJA 2 Mikser sirovine\fw\v1.04\SKC.X\main.h
              dsp5_dig100   0x0000bb       data     extern C:\Users\eldar\Desktop\LINIJA 2 Mikser sirovine\fw\v1.04\SKC.X\main.h
            dsp_digit_cnt   0x0000d3       data     extern C:\Users\eldar\Desktop\LINIJA 2 Mikser sirovine\fw\v1.04\SKC.X\main.h
                 dsp_dos1   0x0000cb       data     extern C:\Users\eldar\Desktop\LINIJA 2 Mikser sirovine\fw\v1.04\SKC.X\main.h
                 dsp_dos2   0x0000cd       data     extern C:\Users\eldar\Desktop\LINIJA 2 Mikser sirovine\fw\v1.04\SKC.X\main.h
                 dsp_dos3   0x0000cf       data     extern C:\Users\eldar\Desktop\LINIJA 2 Mikser sirovine\fw\v1.04\SKC.X\main.h
                 dsp_dos4   0x0000d1       data     extern C:\Users\eldar\Desktop\LINIJA 2 Mikser sirovine\fw\v1.04\SKC.X\main.h
                   dsp_pg   0x0000c9       data     extern C:\Users\eldar\Desktop\LINIJA 2 Mikser sirovine\fw\v1.04\SKC.X\main.h
                  dsp_tmr   0x0000a9       data     extern C:\Users\eldar\Desktop\LINIJA 2 Mikser sirovine\fw\v1.04\SKC.X\main.h
                 err_cnt1   0x000067       data     extern C:\Users\eldar\Desktop\LINIJA 2 Mikser sirovine\fw\v1.04\SKC.X\main.h
             err_dsp_tmr1   0x000064       data     extern C:\Users\eldar\Desktop\LINIJA 2 Mikser sirovine\fw\v1.04\SKC.X\main.h
             err_dsp_tmr2   0x000069       data     extern C:\Users\eldar\Desktop\LINIJA 2 Mikser sirovine\fw\v1.04\SKC.X\main.h
                 err_pcnt   0x0000c0       data     extern C:\Users\eldar\Desktop\LINIJA 2 Mikser sirovine\fw\v1.04\SKC.X\main.h
              error_code1   0x0000be       data     extern C:\Users\eldar\Desktop\LINIJA 2 Mikser sirovine\fw\v1.04\SKC.X\main.h
             error_code10   0x0000bf       data     extern C:\Users\eldar\Desktop\LINIJA 2 Mikser sirovine\fw\v1.04\SKC.X\main.h
                error_dsp   0x0000db       data     extern C:\Users\eldar\Desktop\LINIJA 2 Mikser sirovine\fw\v1.04\SKC.X\main.h
               inputs_0_7   0x0000dc       data     extern C:\Users\eldar\Desktop\LINIJA 2 Mikser sirovine\fw\v1.04\SKC.X\main.h
        inputs_0_7_flags1   0x0000dd       data     extern C:\Users\eldar\Desktop\LINIJA 2 Mikser sirovine\fw\v1.04\SKC.X\main.h
        inputs_0_7_flags2   0x0000de       data     extern C:\Users\eldar\Desktop\LINIJA 2 Mikser sirovine\fw\v1.04\SKC.X\main.h
             inputs_16_23   0x0000e2       data     extern C:\Users\eldar\Desktop\LINIJA 2 Mikser sirovine\fw\v1.04\SKC.X\main.h
      inputs_16_23_flags1   0x0000e3       data     extern C:\Users\eldar\Desktop\LINIJA 2 Mikser sirovine\fw\v1.04\SKC.X\main.h
      inputs_16_23_flags2   0x0000e4       data     extern C:\Users\eldar\Desktop\LINIJA 2 Mikser sirovine\fw\v1.04\SKC.X\main.h
             inputs_24_31   0x0000e5       data     extern C:\Users\eldar\Desktop\LINIJA 2 Mikser sirovine\fw\v1.04\SKC.X\main.h
      inputs_24_31_flags1   0x0000e6       data     extern C:\Users\eldar\Desktop\LINIJA 2 Mikser sirovine\fw\v1.04\SKC.X\main.h
      inputs_24_31_flags2   0x0000e7       data     extern C:\Users\eldar\Desktop\LINIJA 2 Mikser sirovine\fw\v1.04\SKC.X\main.h
              inputs_8_15   0x0000df       data     extern C:\Users\eldar\Desktop\LINIJA 2 Mikser sirovine\fw\v1.04\SKC.X\main.h
       inputs_8_15_flags1   0x0000e0       data     extern C:\Users\eldar\Desktop\LINIJA 2 Mikser sirovine\fw\v1.04\SKC.X\main.h
       inputs_8_15_flags2   0x0000e1       data     extern C:\Users\eldar\Desktop\LINIJA 2 Mikser sirovine\fw\v1.04\SKC.X\main.h
         msg_transfer_tmr   0x0000ab       data     extern C:\Users\eldar\Desktop\LINIJA 2 Mikser sirovine\fw\v1.04\SKC.X\main.h
              net_address   0x000066       data     extern C:\Users\eldar\Desktop\LINIJA 2 Mikser sirovine\fw\v1.04\SKC.X\main.h
                 new_mask   0x000068       data     extern C:\Users\eldar\Desktop\LINIJA 2 Mikser sirovine\fw\v1.04\SKC.X\main.h
                pg_in_use   0x000060       data     extern C:\Users\eldar\Desktop\LINIJA 2 Mikser sirovine\fw\v1.04\SKC.X\main.h
                     prom   0x0000eb       data     static E:\3.46\pic18-lt\cxx-framework\src\traditional\startup\c018i.c
                  rx_buff   0x000083       data     extern C:\Users\eldar\Desktop\LINIJA 2 Mikser sirovine\fw\v1.04\SKC.X\main.h
              rx_hold_tmr   0x000063       data     extern C:\Users\eldar\Desktop\LINIJA 2 Mikser sirovine\fw\v1.04\SKC.X\main.h
                rx_lenght   0x000061       data     extern C:\Users\eldar\Desktop\LINIJA 2 Mikser sirovine\fw\v1.04\SKC.X\main.h
                   shift1   0x0000e8       data     extern C:\Users\eldar\Desktop\LINIJA 2 Mikser sirovine\fw\v1.04\SKC.X\main.h
                   shift2   0x0000e9       data     extern C:\Users\eldar\Desktop\LINIJA 2 Mikser sirovine\fw\v1.04\SKC.X\main.h
                 sig_pcnt   0x0000aa       data     extern C:\Users\eldar\Desktop\LINIJA 2 Mikser sirovine\fw\v1.04\SKC.X\main.h
                  signal1   0x0000d6       data     extern C:\Users\eldar\Desktop\LINIJA 2 Mikser sirovine\fw\v1.04\SKC.X\main.h
                  signal2   0x0000d7       data     extern C:\Users\eldar\Desktop\LINIJA 2 Mikser sirovine\fw\v1.04\SKC.X\main.h
                  signal3   0x0000d8       data     extern C:\Users\eldar\Desktop\LINIJA 2 Mikser sirovine\fw\v1.04\SKC.X\main.h
                  signal4   0x0000d9       data     extern C:\Users\eldar\Desktop\LINIJA 2 Mikser sirovine\fw\v1.04\SKC.X\main.h
                  signal5   0x0000da       data     extern C:\Users\eldar\Desktop\LINIJA 2 Mikser sirovine\fw\v1.04\SKC.X\main.h
           status_led_cnt   0x0000ae       data     extern C:\Users\eldar\Desktop\LINIJA 2 Mikser sirovine\fw\v1.04\SKC.X\main.h
             system_flags   0x0000d4       data     extern C:\Users\eldar\Desktop\LINIJA 2 Mikser sirovine\fw\v1.04\SKC.X\main.h
                 temp_cnt   0x0000a5       data     extern C:\Users\eldar\Desktop\LINIJA 2 Mikser sirovine\fw\v1.04\SKC.X\main.h
             timer_flags1   0x0000d5       data     extern C:\Users\eldar\Desktop\LINIJA 2 Mikser sirovine\fw\v1.04\SKC.X\main.h
                  tx_buff   0x00009c       data     extern C:\Users\eldar\Desktop\LINIJA 2 Mikser sirovine\fw\v1.04\SKC.X\main.h
                   tx_cnt   0x0000a7       data     extern C:\Users\eldar\Desktop\LINIJA 2 Mikser sirovine\fw\v1.04\SKC.X\main.h
                tx_lenght   0x000062       data     extern C:\Users\eldar\Desktop\LINIJA 2 Mikser sirovine\fw\v1.04\SKC.X\main.h



                              Symbols - Sorted by Address
                     Name    Address   Location    Storage File                     
                ---------  ---------  ---------  --------- ---------                
                   _entry   0x000000    program     extern E:\3.46\pic18-lt\cxx-framework\src\traditional\startup\c018i.c
       ___return_lbl00000   0x000004    program     static                          
 interrupt_at_high_vector   0x000008    program     extern C:\Users\eldar\Desktop\LINIJA 2 Mikser sirovine\fw\v1.04\SKC.X\main.c
       ___return_lbl00000   0x00000c    program     static                          
                   __init   0x00000e    program     extern E:\3.46\pic18-lt\cxx-framework\src\traditional\stdclib\__init.c
  interrupt_at_low_vector   0x000018    program     extern C:\Users\eldar\Desktop\LINIJA 2 Mikser sirovine\fw\v1.04\SKC.X\main.c
       ___return_lbl00001   0x00001c    program     static                          
                 high_isr   0x00001e    program     extern C:\Users\eldar\Desktop\LINIJA 2 Mikser sirovine\fw\v1.04\SKC.X\main.c
                  low_isr   0x000186    program     extern C:\Users\eldar\Desktop\LINIJA 2 Mikser sirovine\fw\v1.04\SKC.X\main.c
                  InitSYS   0x000210    program     extern C:\Users\eldar\Desktop\LINIJA 2 Mikser sirovine\fw\v1.04\SKC.X\main.c
                  InitRAM   0x000280    program     extern C:\Users\eldar\Desktop\LINIJA 2 Mikser sirovine\fw\v1.04\SKC.X\main.c
                     main   0x0002ea    program     extern C:\Users\eldar\Desktop\LINIJA 2 Mikser sirovine\fw\v1.04\SKC.X\main.c
               IO_Service   0x0002fa    program     extern C:\Users\eldar\Desktop\LINIJA 2 Mikser sirovine\fw\v1.04\SKC.X\main.c
              CommService   0x000758    program     extern C:\Users\eldar\Desktop\LINIJA 2 Mikser sirovine\fw\v1.04\SKC.X\main.c
            SignalService   0x00090e    program     extern C:\Users\eldar\Desktop\LINIJA 2 Mikser sirovine\fw\v1.04\SKC.X\main.c
             ErrorService   0x00095c    program     extern C:\Users\eldar\Desktop\LINIJA 2 Mikser sirovine\fw\v1.04\SKC.X\main.c
           DisplayService   0x000a28    program     extern C:\Users\eldar\Desktop\LINIJA 2 Mikser sirovine\fw\v1.04\SKC.X\main.c
               CharTo7seg   0x000b14    program     extern C:\Users\eldar\Desktop\LINIJA 2 Mikser sirovine\fw\v1.04\SKC.X\main.c
          EEPROM_ReadByte   0x000d08    program     extern C:\Users\eldar\Desktop\LINIJA 2 Mikser sirovine\fw\v1.04\SKC.X\main.c
           EEPROM_ReadInt   0x000d18    program     extern C:\Users\eldar\Desktop\LINIJA 2 Mikser sirovine\fw\v1.04\SKC.X\main.c
         EEPROM_WriteByte   0x000d70    program     extern C:\Users\eldar\Desktop\LINIJA 2 Mikser sirovine\fw\v1.04\SKC.X\main.c
          EEPROM_WriteInt   0x000dae    program     extern C:\Users\eldar\Desktop\LINIJA 2 Mikser sirovine\fw\v1.04\SKC.X\main.c
                   __pa_0   0x000de0    program     static C:\Users\eldar\Desktop\LINIJA 2 Mikser sirovine\fw\v1.04\SKC.X\main.c
                   __pa_1   0x000dea    program     static C:\Users\eldar\Desktop\LINIJA 2 Mikser sirovine\fw\v1.04\SKC.X\main.c
                   __pa_2   0x000e00    program     static C:\Users\eldar\Desktop\LINIJA 2 Mikser sirovine\fw\v1.04\SKC.X\main.c
                   __pa_3   0x000e08    program     static C:\Users\eldar\Desktop\LINIJA 2 Mikser sirovine\fw\v1.04\SKC.X\main.c
                   __pa_4   0x000e32    program     static C:\Users\eldar\Desktop\LINIJA 2 Mikser sirovine\fw\v1.04\SKC.X\main.c
                   __pa_5   0x000e3c    program     static C:\Users\eldar\Desktop\LINIJA 2 Mikser sirovine\fw\v1.04\SKC.X\main.c
                   __pa_6   0x000e44    program     static C:\Users\eldar\Desktop\LINIJA 2 Mikser sirovine\fw\v1.04\SKC.X\main.c
                   __pa_7   0x000e54    program     static C:\Users\eldar\Desktop\LINIJA 2 Mikser sirovine\fw\v1.04\SKC.X\main.c
                   __pa_8   0x000e6a    program     static C:\Users\eldar\Desktop\LINIJA 2 Mikser sirovine\fw\v1.04\SKC.X\main.c
                   __pa_9   0x000e76    program     static C:\Users\eldar\Desktop\LINIJA 2 Mikser sirovine\fw\v1.04\SKC.X\main.c
                  __pa_10   0x000e7e    program     static C:\Users\eldar\Desktop\LINIJA 2 Mikser sirovine\fw\v1.04\SKC.X\main.c
                  __pa_11   0x000e8c    program     static C:\Users\eldar\Desktop\LINIJA 2 Mikser sirovine\fw\v1.04\SKC.X\main.c
                  __pa_12   0x000e96    program     static C:\Users\eldar\Desktop\LINIJA 2 Mikser sirovine\fw\v1.04\SKC.X\main.c
                  __pa_13   0x000ea0    program     static C:\Users\eldar\Desktop\LINIJA 2 Mikser sirovine\fw\v1.04\SKC.X\main.c
                  __pa_14   0x000eaa    program     static C:\Users\eldar\Desktop\LINIJA 2 Mikser sirovine\fw\v1.04\SKC.X\main.c
                  __pa_15   0x000eb2    program     static C:\Users\eldar\Desktop\LINIJA 2 Mikser sirovine\fw\v1.04\SKC.X\main.c
                  __pa_16   0x000ebc    program     static C:\Users\eldar\Desktop\LINIJA 2 Mikser sirovine\fw\v1.04\SKC.X\main.c
                  __pa_17   0x000ec6    program     static C:\Users\eldar\Desktop\LINIJA 2 Mikser sirovine\fw\v1.04\SKC.X\main.c
                  __pa_18   0x000ed0    program     static C:\Users\eldar\Desktop\LINIJA 2 Mikser sirovine\fw\v1.04\SKC.X\main.c
                  __pa_19   0x000eda    program     static C:\Users\eldar\Desktop\LINIJA 2 Mikser sirovine\fw\v1.04\SKC.X\main.c
                  __pa_20   0x000ee8    program     static C:\Users\eldar\Desktop\LINIJA 2 Mikser sirovine\fw\v1.04\SKC.X\main.c
                  __pa_21   0x000ef6    program     static C:\Users\eldar\Desktop\LINIJA 2 Mikser sirovine\fw\v1.04\SKC.X\main.c
                  __pa_22   0x000f02    program     static C:\Users\eldar\Desktop\LINIJA 2 Mikser sirovine\fw\v1.04\SKC.X\main.c
                _do_cinit   0x000f0a    program     extern E:\3.46\pic18-lt\cxx-framework\src\traditional\startup\c018i.c
                     test   0x000f24    program     static                          
                copy_loop   0x000f7c    program     static                          
            copy_one_byte   0x000f82    program     static                          
             done_copying   0x000f90    program     static                          
                     done   0x000fa6    program     static                          
       ___return_lbl00002   0x000fa6    program     static                          
                  OpenSPI   0x000fa8    program     extern E:\3.46\pic18-lt\cxx-framework\src\pmc_common\SPI\spi_open.c
                ReadUSART   0x001012    program     extern E:\3.46\pic18-lt\cxx-framework\src\pmc_common\USART\uread.c
                 WriteSPI   0x001050    program     extern E:\3.46\pic18-lt\cxx-framework\src\pmc_common\SPI\spi_writ.c
               OpenTimer0   0x00108c    program     extern E:\3.46\pic18-lt\cxx-framework\src\pmc_common\Timers\t0open.c
             Delay10KTCYx   0x0010c4    program     extern E:\3.46\pic18-lt\cxx-framework\src\traditional\delays\d10ktcyx.asm
                    D10Kx   0x0010ce    program     static E:\3.46\pic18-lt\cxx-framework\src\traditional\delays\d10ktcyx.asm
                   D10K_1   0x0010d0    program     static E:\3.46\pic18-lt\cxx-framework\src\traditional\delays\d10ktcyx.asm
       _D10KTCYXCODE_0010   0x0010d4    program     static E:\3.46\pic18-lt\cxx-framework\src\traditional\delays\d10ktcyx.asm
                    D10Kl   0x0010dc    program     static E:\3.46\pic18-lt\cxx-framework\src\traditional\delays\d10ktcyx.asm
       _D10KTCYXCODE_001C   0x0010e0    program     static E:\3.46\pic18-lt\cxx-framework\src\traditional\delays\d10ktcyx.asm
               WriteUSART   0x0010f2    program     extern E:\3.46\pic18-lt\cxx-framework\src\pmc_common\USART\uwrite.c
              Delay1KTCYx   0x001120    program     extern E:\3.46\pic18-lt\cxx-framework\src\traditional\delays\d1ktcyx.asm
                     D1Kx   0x00112a    program     static E:\3.46\pic18-lt\cxx-framework\src\traditional\delays\d1ktcyx.asm
                    D1K_1   0x00112c    program     static E:\3.46\pic18-lt\cxx-framework\src\traditional\delays\d1ktcyx.asm
        _D1KTCYXCODE_0010   0x001130    program     static E:\3.46\pic18-lt\cxx-framework\src\traditional\delays\d1ktcyx.asm
        _D1KTCYXCODE_0016   0x001136    program     static E:\3.46\pic18-lt\cxx-framework\src\traditional\delays\d1ktcyx.asm
            __zero_memory   0x001140    program     extern E:\3.46\pic18-lt\cxx-framework\src\traditional\proc\p18f23k20.asm
               zero_block   0x00114e    program     static E:\3.46\pic18-lt\cxx-framework\src\traditional\proc\p18f23k20.asm
                   loop_h   0x00114e    program     static E:\3.46\pic18-lt\cxx-framework\src\traditional\proc\p18f23k20.asm
                compare_l   0x001156    program     static E:\3.46\pic18-lt\cxx-framework\src\traditional\proc\p18f23k20.asm
                   loop_l   0x001158    program     static E:\3.46\pic18-lt\cxx-framework\src\traditional\proc\p18f23k20.asm
                 _startup   0x001160    program     extern E:\3.46\pic18-lt\cxx-framework\src\traditional\startup\c018i.c
                     loop   0x001170    program     static                          
       ___return_lbl00001   0x00117a    program     static                          
             Delay100TCYx   0x00117c    program     extern E:\3.46\pic18-lt\cxx-framework\src\traditional\delays\d100tcyx.asm
       _D100TCYXCODE_0008   0x001184    program     static E:\3.46\pic18-lt\cxx-framework\src\traditional\delays\d100tcyx.asm
                    D100x   0x001188    program     static E:\3.46\pic18-lt\cxx-framework\src\traditional\delays\d100tcyx.asm
                   D100_1   0x00118a    program     static E:\3.46\pic18-lt\cxx-framework\src\traditional\delays\d100tcyx.asm
       _D100TCYXCODE_0012   0x00118e    program     static E:\3.46\pic18-lt\cxx-framework\src\traditional\delays\d100tcyx.asm
       _D100TCYXCODE_0018   0x001194    program     static E:\3.46\pic18-lt\cxx-framework\src\traditional\delays\d100tcyx.asm
               error_msg1   0x001198    program     extern C:\Users\eldar\Desktop\LINIJA 2 Mikser sirovine\fw\v1.04\SKC.X\main.h
               __config_0   0x300001    program     static C:\Users\eldar\Desktop\LINIJA 2 Mikser sirovine\fw\v1.04\SKC.X\main.c
               __config_1   0x300002    program     static C:\Users\eldar\Desktop\LINIJA 2 Mikser sirovine\fw\v1.04\SKC.X\main.c
               __config_2   0x300003    program     static C:\Users\eldar\Desktop\LINIJA 2 Mikser sirovine\fw\v1.04\SKC.X\main.c
               __config_3   0x300005    program     static C:\Users\eldar\Desktop\LINIJA 2 Mikser sirovine\fw\v1.04\SKC.X\main.c
               __config_4   0x300006    program     static C:\Users\eldar\Desktop\LINIJA 2 Mikser sirovine\fw\v1.04\SKC.X\main.c
                     SIGN   0x000000       data     extern E:\3.46\pic18-lt\cxx-framework\src\traditional\math\cmath18.asm
                __FPFLAGS   0x000001       data     extern E:\3.46\pic18-lt\cxx-framework\src\traditional\math\cmath18.asm
            __FPFLAGSbits   0x000001       data     extern E:\3.46\pic18-lt\cxx-framework\src\traditional\math\cmath18.asm
                  __tmp_0   0x000002       data     static C:\Users\eldar\Desktop\LINIJA 2 Mikser sirovine\fw\v1.04\SKC.X\main.c
            DelayCounter2   0x000004       data     extern E:\3.46\pic18-lt\cxx-framework\src\traditional\delays\delayd2.asm
            DelayCounter1   0x000005       data     extern E:\3.46\pic18-lt\cxx-framework\src\traditional\delays\delayd1.asm
                pg_in_use   0x000060       data     extern C:\Users\eldar\Desktop\LINIJA 2 Mikser sirovine\fw\v1.04\SKC.X\main.h
                rx_lenght   0x000061       data     extern C:\Users\eldar\Desktop\LINIJA 2 Mikser sirovine\fw\v1.04\SKC.X\main.h
                tx_lenght   0x000062       data     extern C:\Users\eldar\Desktop\LINIJA 2 Mikser sirovine\fw\v1.04\SKC.X\main.h
              rx_hold_tmr   0x000063       data     extern C:\Users\eldar\Desktop\LINIJA 2 Mikser sirovine\fw\v1.04\SKC.X\main.h
             err_dsp_tmr1   0x000064       data     extern C:\Users\eldar\Desktop\LINIJA 2 Mikser sirovine\fw\v1.04\SKC.X\main.h
            comm_data_cnt   0x000065       data     extern C:\Users\eldar\Desktop\LINIJA 2 Mikser sirovine\fw\v1.04\SKC.X\main.h
              net_address   0x000066       data     extern C:\Users\eldar\Desktop\LINIJA 2 Mikser sirovine\fw\v1.04\SKC.X\main.h
                 err_cnt1   0x000067       data     extern C:\Users\eldar\Desktop\LINIJA 2 Mikser sirovine\fw\v1.04\SKC.X\main.h
                 new_mask   0x000068       data     extern C:\Users\eldar\Desktop\LINIJA 2 Mikser sirovine\fw\v1.04\SKC.X\main.h
             err_dsp_tmr2   0x000069       data     extern C:\Users\eldar\Desktop\LINIJA 2 Mikser sirovine\fw\v1.04\SKC.X\main.h
                comm_buff   0x00006a       data     extern C:\Users\eldar\Desktop\LINIJA 2 Mikser sirovine\fw\v1.04\SKC.X\main.h
                  rx_buff   0x000083       data     extern C:\Users\eldar\Desktop\LINIJA 2 Mikser sirovine\fw\v1.04\SKC.X\main.h
                  tx_buff   0x00009c       data     extern C:\Users\eldar\Desktop\LINIJA 2 Mikser sirovine\fw\v1.04\SKC.X\main.h
                comm_temp   0x0000a4       data     extern C:\Users\eldar\Desktop\LINIJA 2 Mikser sirovine\fw\v1.04\SKC.X\main.h
                 temp_cnt   0x0000a5       data     extern C:\Users\eldar\Desktop\LINIJA 2 Mikser sirovine\fw\v1.04\SKC.X\main.h
                 checksum   0x0000a6       data     extern C:\Users\eldar\Desktop\LINIJA 2 Mikser sirovine\fw\v1.04\SKC.X\main.h
                   tx_cnt   0x0000a7       data     extern C:\Users\eldar\Desktop\LINIJA 2 Mikser sirovine\fw\v1.04\SKC.X\main.h
             comm_err_cnt   0x0000a8       data     extern C:\Users\eldar\Desktop\LINIJA 2 Mikser sirovine\fw\v1.04\SKC.X\main.h
                  dsp_tmr   0x0000a9       data     extern C:\Users\eldar\Desktop\LINIJA 2 Mikser sirovine\fw\v1.04\SKC.X\main.h
                 sig_pcnt   0x0000aa       data     extern C:\Users\eldar\Desktop\LINIJA 2 Mikser sirovine\fw\v1.04\SKC.X\main.h
         msg_transfer_tmr   0x0000ab       data     extern C:\Users\eldar\Desktop\LINIJA 2 Mikser sirovine\fw\v1.04\SKC.X\main.h
             display_mode   0x0000ac       data     extern C:\Users\eldar\Desktop\LINIJA 2 Mikser sirovine\fw\v1.04\SKC.X\main.h
             display_name   0x0000ad       data     extern C:\Users\eldar\Desktop\LINIJA 2 Mikser sirovine\fw\v1.04\SKC.X\main.h
           status_led_cnt   0x0000ae       data     extern C:\Users\eldar\Desktop\LINIJA 2 Mikser sirovine\fw\v1.04\SKC.X\main.h
              dsp1_dig100   0x0000af       data     extern C:\Users\eldar\Desktop\LINIJA 2 Mikser sirovine\fw\v1.04\SKC.X\main.h
               dsp1_dig10   0x0000b0       data     extern C:\Users\eldar\Desktop\LINIJA 2 Mikser sirovine\fw\v1.04\SKC.X\main.h
                dsp1_dig1   0x0000b1       data     extern C:\Users\eldar\Desktop\LINIJA 2 Mikser sirovine\fw\v1.04\SKC.X\main.h
              dsp2_dig100   0x0000b2       data     extern C:\Users\eldar\Desktop\LINIJA 2 Mikser sirovine\fw\v1.04\SKC.X\main.h
               dsp2_dig10   0x0000b3       data     extern C:\Users\eldar\Desktop\LINIJA 2 Mikser sirovine\fw\v1.04\SKC.X\main.h
                dsp2_dig1   0x0000b4       data     extern C:\Users\eldar\Desktop\LINIJA 2 Mikser sirovine\fw\v1.04\SKC.X\main.h
              dsp3_dig100   0x0000b5       data     extern C:\Users\eldar\Desktop\LINIJA 2 Mikser sirovine\fw\v1.04\SKC.X\main.h
               dsp3_dig10   0x0000b6       data     extern C:\Users\eldar\Desktop\LINIJA 2 Mikser sirovine\fw\v1.04\SKC.X\main.h
                dsp3_dig1   0x0000b7       data     extern C:\Users\eldar\Desktop\LINIJA 2 Mikser sirovine\fw\v1.04\SKC.X\main.h
              dsp4_dig100   0x0000b8       data     extern C:\Users\eldar\Desktop\LINIJA 2 Mikser sirovine\fw\v1.04\SKC.X\main.h
               dsp4_dig10   0x0000b9       data     extern C:\Users\eldar\Desktop\LINIJA 2 Mikser sirovine\fw\v1.04\SKC.X\main.h
                dsp4_dig1   0x0000ba       data     extern C:\Users\eldar\Desktop\LINIJA 2 Mikser sirovine\fw\v1.04\SKC.X\main.h
              dsp5_dig100   0x0000bb       data     extern C:\Users\eldar\Desktop\LINIJA 2 Mikser sirovine\fw\v1.04\SKC.X\main.h
               dsp5_dig10   0x0000bc       data     extern C:\Users\eldar\Desktop\LINIJA 2 Mikser sirovine\fw\v1.04\SKC.X\main.h
                dsp5_dig1   0x0000bd       data     extern C:\Users\eldar\Desktop\LINIJA 2 Mikser sirovine\fw\v1.04\SKC.X\main.h
              error_code1   0x0000be       data     extern C:\Users\eldar\Desktop\LINIJA 2 Mikser sirovine\fw\v1.04\SKC.X\main.h
             error_code10   0x0000bf       data     extern C:\Users\eldar\Desktop\LINIJA 2 Mikser sirovine\fw\v1.04\SKC.X\main.h
                 err_pcnt   0x0000c0       data     extern C:\Users\eldar\Desktop\LINIJA 2 Mikser sirovine\fw\v1.04\SKC.X\main.h
                 dos1_ref   0x0000c1       data     extern C:\Users\eldar\Desktop\LINIJA 2 Mikser sirovine\fw\v1.04\SKC.X\main.h
                 dos2_ref   0x0000c3       data     extern C:\Users\eldar\Desktop\LINIJA 2 Mikser sirovine\fw\v1.04\SKC.X\main.h
                 dos3_ref   0x0000c5       data     extern C:\Users\eldar\Desktop\LINIJA 2 Mikser sirovine\fw\v1.04\SKC.X\main.h
                 dos4_ref   0x0000c7       data     extern C:\Users\eldar\Desktop\LINIJA 2 Mikser sirovine\fw\v1.04\SKC.X\main.h
                   dsp_pg   0x0000c9       data     extern C:\Users\eldar\Desktop\LINIJA 2 Mikser sirovine\fw\v1.04\SKC.X\main.h
                 dsp_dos1   0x0000cb       data     extern C:\Users\eldar\Desktop\LINIJA 2 Mikser sirovine\fw\v1.04\SKC.X\main.h
                 dsp_dos2   0x0000cd       data     extern C:\Users\eldar\Desktop\LINIJA 2 Mikser sirovine\fw\v1.04\SKC.X\main.h
                 dsp_dos3   0x0000cf       data     extern C:\Users\eldar\Desktop\LINIJA 2 Mikser sirovine\fw\v1.04\SKC.X\main.h
                 dsp_dos4   0x0000d1       data     extern C:\Users\eldar\Desktop\LINIJA 2 Mikser sirovine\fw\v1.04\SKC.X\main.h
            dsp_digit_cnt   0x0000d3       data     extern C:\Users\eldar\Desktop\LINIJA 2 Mikser sirovine\fw\v1.04\SKC.X\main.h
             system_flags   0x0000d4       data     extern C:\Users\eldar\Desktop\LINIJA 2 Mikser sirovine\fw\v1.04\SKC.X\main.h
             timer_flags1   0x0000d5       data     extern C:\Users\eldar\Desktop\LINIJA 2 Mikser sirovine\fw\v1.04\SKC.X\main.h
                  signal1   0x0000d6       data     extern C:\Users\eldar\Desktop\LINIJA 2 Mikser sirovine\fw\v1.04\SKC.X\main.h
                  signal2   0x0000d7       data     extern C:\Users\eldar\Desktop\LINIJA 2 Mikser sirovine\fw\v1.04\SKC.X\main.h
                  signal3   0x0000d8       data     extern C:\Users\eldar\Desktop\LINIJA 2 Mikser sirovine\fw\v1.04\SKC.X\main.h
                  signal4   0x0000d9       data     extern C:\Users\eldar\Desktop\LINIJA 2 Mikser sirovine\fw\v1.04\SKC.X\main.h
                  signal5   0x0000da       data     extern C:\Users\eldar\Desktop\LINIJA 2 Mikser sirovine\fw\v1.04\SKC.X\main.h
                error_dsp   0x0000db       data     extern C:\Users\eldar\Desktop\LINIJA 2 Mikser sirovine\fw\v1.04\SKC.X\main.h
               inputs_0_7   0x0000dc       data     extern C:\Users\eldar\Desktop\LINIJA 2 Mikser sirovine\fw\v1.04\SKC.X\main.h
        inputs_0_7_flags1   0x0000dd       data     extern C:\Users\eldar\Desktop\LINIJA 2 Mikser sirovine\fw\v1.04\SKC.X\main.h
        inputs_0_7_flags2   0x0000de       data     extern C:\Users\eldar\Desktop\LINIJA 2 Mikser sirovine\fw\v1.04\SKC.X\main.h
              inputs_8_15   0x0000df       data     extern C:\Users\eldar\Desktop\LINIJA 2 Mikser sirovine\fw\v1.04\SKC.X\main.h
       inputs_8_15_flags1   0x0000e0       data     extern C:\Users\eldar\Desktop\LINIJA 2 Mikser sirovine\fw\v1.04\SKC.X\main.h
       inputs_8_15_flags2   0x0000e1       data     extern C:\Users\eldar\Desktop\LINIJA 2 Mikser sirovine\fw\v1.04\SKC.X\main.h
             inputs_16_23   0x0000e2       data     extern C:\Users\eldar\Desktop\LINIJA 2 Mikser sirovine\fw\v1.04\SKC.X\main.h
      inputs_16_23_flags1   0x0000e3       data     extern C:\Users\eldar\Desktop\LINIJA 2 Mikser sirovine\fw\v1.04\SKC.X\main.h
      inputs_16_23_flags2   0x0000e4       data     extern C:\Users\eldar\Desktop\LINIJA 2 Mikser sirovine\fw\v1.04\SKC.X\main.h
             inputs_24_31   0x0000e5       data     extern C:\Users\eldar\Desktop\LINIJA 2 Mikser sirovine\fw\v1.04\SKC.X\main.h
      inputs_24_31_flags1   0x0000e6       data     extern C:\Users\eldar\Desktop\LINIJA 2 Mikser sirovine\fw\v1.04\SKC.X\main.h
      inputs_24_31_flags2   0x0000e7       data     extern C:\Users\eldar\Desktop\LINIJA 2 Mikser sirovine\fw\v1.04\SKC.X\main.h
                   shift1   0x0000e8       data     extern C:\Users\eldar\Desktop\LINIJA 2 Mikser sirovine\fw\v1.04\SKC.X\main.h
                   shift2   0x0000e9       data     extern C:\Users\eldar\Desktop\LINIJA 2 Mikser sirovine\fw\v1.04\SKC.X\main.h
               comm_flags   0x0000ea       data     extern C:\Users\eldar\Desktop\LINIJA 2 Mikser sirovine\fw\v1.04\SKC.X\main.h
                     prom   0x0000eb       data     static E:\3.46\pic18-lt\cxx-framework\src\traditional\startup\c018i.c
                curr_byte   0x0000ee       data     static E:\3.46\pic18-lt\cxx-framework\src\traditional\startup\c018i.c
               curr_entry   0x0000f0       data     static E:\3.46\pic18-lt\cxx-framework\src\traditional\startup\c018i.c
                 data_ptr   0x0000f2       data     static E:\3.46\pic18-lt\cxx-framework\src\traditional\startup\c018i.c
             USART_Status   0x0000f5       data     extern E:\3.46\pic18-lt\cxx-framework\src\pmc_common\USART\udefs.c
               SSPMSKbits   0x000f77       data     extern E:\3.46\pic18-lt\cxx-framework\src\traditional\proc\p18f23k20.asm
                   SSPMSK   0x000f77       data     extern E:\3.46\pic18-lt\cxx-framework\src\traditional\proc\p18f23k20.asm
               SLRCONbits   0x000f78       data     extern E:\3.46\pic18-lt\cxx-framework\src\traditional\proc\p18f23k20.asm
                   SLRCON   0x000f78       data     extern E:\3.46\pic18-lt\cxx-framework\src\traditional\proc\p18f23k20.asm
                  CM2CON1   0x000f79       data     extern E:\3.46\pic18-lt\cxx-framework\src\traditional\proc\p18f23k20.asm
              CM2CON1bits   0x000f79       data     extern E:\3.46\pic18-lt\cxx-framework\src\traditional\proc\p18f23k20.asm
                  CM2CON0   0x000f7a       data     extern E:\3.46\pic18-lt\cxx-framework\src\traditional\proc\p18f23k20.asm
              CM2CON0bits   0x000f7a       data     extern E:\3.46\pic18-lt\cxx-framework\src\traditional\proc\p18f23k20.asm
                  CM1CON0   0x000f7b       data     extern E:\3.46\pic18-lt\cxx-framework\src\traditional\proc\p18f23k20.asm
              CM1CON0bits   0x000f7b       data     extern E:\3.46\pic18-lt\cxx-framework\src\traditional\proc\p18f23k20.asm
                 WPUBbits   0x000f7c       data     extern E:\3.46\pic18-lt\cxx-framework\src\traditional\proc\p18f23k20.asm
                     WPUB   0x000f7c       data     extern E:\3.46\pic18-lt\cxx-framework\src\traditional\proc\p18f23k20.asm
                     IOCB   0x000f7d       data     extern E:\3.46\pic18-lt\cxx-framework\src\traditional\proc\p18f23k20.asm
                 IOCBbits   0x000f7d       data     extern E:\3.46\pic18-lt\cxx-framework\src\traditional\proc\p18f23k20.asm
                ANSELbits   0x000f7e       data     extern E:\3.46\pic18-lt\cxx-framework\src\traditional\proc\p18f23k20.asm
                    ANSEL   0x000f7e       data     extern E:\3.46\pic18-lt\cxx-framework\src\traditional\proc\p18f23k20.asm
               ANSELHbits   0x000f7f       data     extern E:\3.46\pic18-lt\cxx-framework\src\traditional\proc\p18f23k20.asm
                   ANSELH   0x000f7f       data     extern E:\3.46\pic18-lt\cxx-framework\src\traditional\proc\p18f23k20.asm
                PORTAbits   0x000f80       data     extern E:\3.46\pic18-lt\cxx-framework\src\traditional\proc\p18f23k20.asm
                    PORTA   0x000f80       data     extern E:\3.46\pic18-lt\cxx-framework\src\traditional\proc\p18f23k20.asm
                PORTBbits   0x000f81       data     extern E:\3.46\pic18-lt\cxx-framework\src\traditional\proc\p18f23k20.asm
                    PORTB   0x000f81       data     extern E:\3.46\pic18-lt\cxx-framework\src\traditional\proc\p18f23k20.asm
                    PORTC   0x000f82       data     extern E:\3.46\pic18-lt\cxx-framework\src\traditional\proc\p18f23k20.asm
                PORTCbits   0x000f82       data     extern E:\3.46\pic18-lt\cxx-framework\src\traditional\proc\p18f23k20.asm
                    PORTE   0x000f84       data     extern E:\3.46\pic18-lt\cxx-framework\src\traditional\proc\p18f23k20.asm
                PORTEbits   0x000f84       data     extern E:\3.46\pic18-lt\cxx-framework\src\traditional\proc\p18f23k20.asm
                     LATA   0x000f89       data     extern E:\3.46\pic18-lt\cxx-framework\src\traditional\proc\p18f23k20.asm
                 LATAbits   0x000f89       data     extern E:\3.46\pic18-lt\cxx-framework\src\traditional\proc\p18f23k20.asm
                 LATBbits   0x000f8a       data     extern E:\3.46\pic18-lt\cxx-framework\src\traditional\proc\p18f23k20.asm
                     LATB   0x000f8a       data     extern E:\3.46\pic18-lt\cxx-framework\src\traditional\proc\p18f23k20.asm
                 LATCbits   0x000f8b       data     extern E:\3.46\pic18-lt\cxx-framework\src\traditional\proc\p18f23k20.asm
                     LATC   0x000f8b       data     extern E:\3.46\pic18-lt\cxx-framework\src\traditional\proc\p18f23k20.asm
                 DDRAbits   0x000f92       data     extern E:\3.46\pic18-lt\cxx-framework\src\traditional\proc\p18f23k20.asm
                     DDRA   0x000f92       data     extern E:\3.46\pic18-lt\cxx-framework\src\traditional\proc\p18f23k20.asm
                TRISAbits   0x000f92       data     extern E:\3.46\pic18-lt\cxx-framework\src\traditional\proc\p18f23k20.asm
                    TRISA   0x000f92       data     extern E:\3.46\pic18-lt\cxx-framework\src\traditional\proc\p18f23k20.asm
                     DDRB   0x000f93       data     extern E:\3.46\pic18-lt\cxx-framework\src\traditional\proc\p18f23k20.asm
                 DDRBbits   0x000f93       data     extern E:\3.46\pic18-lt\cxx-framework\src\traditional\proc\p18f23k20.asm
                TRISBbits   0x000f93       data     extern E:\3.46\pic18-lt\cxx-framework\src\traditional\proc\p18f23k20.asm
                    TRISB   0x000f93       data     extern E:\3.46\pic18-lt\cxx-framework\src\traditional\proc\p18f23k20.asm
                     DDRC   0x000f94       data     extern E:\3.46\pic18-lt\cxx-framework\src\traditional\proc\p18f23k20.asm
                TRISCbits   0x000f94       data     extern E:\3.46\pic18-lt\cxx-framework\src\traditional\proc\p18f23k20.asm
                    TRISC   0x000f94       data     extern E:\3.46\pic18-lt\cxx-framework\src\traditional\proc\p18f23k20.asm
                 DDRCbits   0x000f94       data     extern E:\3.46\pic18-lt\cxx-framework\src\traditional\proc\p18f23k20.asm
              OSCTUNEbits   0x000f9b       data     extern E:\3.46\pic18-lt\cxx-framework\src\traditional\proc\p18f23k20.asm
                  OSCTUNE   0x000f9b       data     extern E:\3.46\pic18-lt\cxx-framework\src\traditional\proc\p18f23k20.asm
                 PIE1bits   0x000f9d       data     extern E:\3.46\pic18-lt\cxx-framework\src\traditional\proc\p18f23k20.asm
                     PIE1   0x000f9d       data     extern E:\3.46\pic18-lt\cxx-framework\src\traditional\proc\p18f23k20.asm
                 PIR1bits   0x000f9e       data     extern E:\3.46\pic18-lt\cxx-framework\src\traditional\proc\p18f23k20.asm
                     PIR1   0x000f9e       data     extern E:\3.46\pic18-lt\cxx-framework\src\traditional\proc\p18f23k20.asm
                 IPR1bits   0x000f9f       data     extern E:\3.46\pic18-lt\cxx-framework\src\traditional\proc\p18f23k20.asm
                     IPR1   0x000f9f       data     extern E:\3.46\pic18-lt\cxx-framework\src\traditional\proc\p18f23k20.asm
                 PIE2bits   0x000fa0       data     extern E:\3.46\pic18-lt\cxx-framework\src\traditional\proc\p18f23k20.asm
                     PIE2   0x000fa0       data     extern E:\3.46\pic18-lt\cxx-framework\src\traditional\proc\p18f23k20.asm
                 PIR2bits   0x000fa1       data     extern E:\3.46\pic18-lt\cxx-framework\src\traditional\proc\p18f23k20.asm
                     PIR2   0x000fa1       data     extern E:\3.46\pic18-lt\cxx-framework\src\traditional\proc\p18f23k20.asm
                 IPR2bits   0x000fa2       data     extern E:\3.46\pic18-lt\cxx-framework\src\traditional\proc\p18f23k20.asm
                     IPR2   0x000fa2       data     extern E:\3.46\pic18-lt\cxx-framework\src\traditional\proc\p18f23k20.asm
                   EECON1   0x000fa6       data     extern E:\3.46\pic18-lt\cxx-framework\src\traditional\proc\p18f23k20.asm
               EECON1bits   0x000fa6       data     extern E:\3.46\pic18-lt\cxx-framework\src\traditional\proc\p18f23k20.asm
                   EECON2   0x000fa7       data     extern E:\3.46\pic18-lt\cxx-framework\src\traditional\proc\p18f23k20.asm
                   EEDATA   0x000fa8       data     extern E:\3.46\pic18-lt\cxx-framework\src\traditional\proc\p18f23k20.asm
                    EEADR   0x000fa9       data     extern E:\3.46\pic18-lt\cxx-framework\src\traditional\proc\p18f23k20.asm
                EEADRbits   0x000fa9       data     extern E:\3.46\pic18-lt\cxx-framework\src\traditional\proc\p18f23k20.asm
                    RCSTA   0x000fab       data     extern E:\3.46\pic18-lt\cxx-framework\src\traditional\proc\p18f23k20.asm
                RCSTAbits   0x000fab       data     extern E:\3.46\pic18-lt\cxx-framework\src\traditional\proc\p18f23k20.asm
                    TXSTA   0x000fac       data     extern E:\3.46\pic18-lt\cxx-framework\src\traditional\proc\p18f23k20.asm
                TXSTAbits   0x000fac       data     extern E:\3.46\pic18-lt\cxx-framework\src\traditional\proc\p18f23k20.asm
                    TXREG   0x000fad       data     extern E:\3.46\pic18-lt\cxx-framework\src\traditional\proc\p18f23k20.asm
                    RCREG   0x000fae       data     extern E:\3.46\pic18-lt\cxx-framework\src\traditional\proc\p18f23k20.asm
                    SPBRG   0x000faf       data     extern E:\3.46\pic18-lt\cxx-framework\src\traditional\proc\p18f23k20.asm
                   SPBRGH   0x000fb0       data     extern E:\3.46\pic18-lt\cxx-framework\src\traditional\proc\p18f23k20.asm
                T3CONbits   0x000fb1       data     extern E:\3.46\pic18-lt\cxx-framework\src\traditional\proc\p18f23k20.asm
                    T3CON   0x000fb1       data     extern E:\3.46\pic18-lt\cxx-framework\src\traditional\proc\p18f23k20.asm
                    TMR3L   0x000fb2       data     extern E:\3.46\pic18-lt\cxx-framework\src\traditional\proc\p18f23k20.asm
                    TMR3H   0x000fb3       data     extern E:\3.46\pic18-lt\cxx-framework\src\traditional\proc\p18f23k20.asm
                  CVRCON2   0x000fb4       data     extern E:\3.46\pic18-lt\cxx-framework\src\traditional\proc\p18f23k20.asm
              CVRCON2bits   0x000fb4       data     extern E:\3.46\pic18-lt\cxx-framework\src\traditional\proc\p18f23k20.asm
                   CVRCON   0x000fb5       data     extern E:\3.46\pic18-lt\cxx-framework\src\traditional\proc\p18f23k20.asm
               CVRCONbits   0x000fb5       data     extern E:\3.46\pic18-lt\cxx-framework\src\traditional\proc\p18f23k20.asm
                  ECCP1AS   0x000fb6       data     extern E:\3.46\pic18-lt\cxx-framework\src\traditional\proc\p18f23k20.asm
              ECCP1ASbits   0x000fb6       data     extern E:\3.46\pic18-lt\cxx-framework\src\traditional\proc\p18f23k20.asm
              PWM1CONbits   0x000fb7       data     extern E:\3.46\pic18-lt\cxx-framework\src\traditional\proc\p18f23k20.asm
                  PWM1CON   0x000fb7       data     extern E:\3.46\pic18-lt\cxx-framework\src\traditional\proc\p18f23k20.asm
              BAUDCTLbits   0x000fb8       data     extern E:\3.46\pic18-lt\cxx-framework\src\traditional\proc\p18f23k20.asm
                  BAUDCON   0x000fb8       data     extern E:\3.46\pic18-lt\cxx-framework\src\traditional\proc\p18f23k20.asm
              BAUDCONbits   0x000fb8       data     extern E:\3.46\pic18-lt\cxx-framework\src\traditional\proc\p18f23k20.asm
                  BAUDCTL   0x000fb8       data     extern E:\3.46\pic18-lt\cxx-framework\src\traditional\proc\p18f23k20.asm
              PSTRCONbits   0x000fb9       data     extern E:\3.46\pic18-lt\cxx-framework\src\traditional\proc\p18f23k20.asm
                  PSTRCON   0x000fb9       data     extern E:\3.46\pic18-lt\cxx-framework\src\traditional\proc\p18f23k20.asm
              CCP2CONbits   0x000fba       data     extern E:\3.46\pic18-lt\cxx-framework\src\traditional\proc\p18f23k20.asm
                  CCP2CON   0x000fba       data     extern E:\3.46\pic18-lt\cxx-framework\src\traditional\proc\p18f23k20.asm
                   CCPR2L   0x000fbb       data     extern E:\3.46\pic18-lt\cxx-framework\src\traditional\proc\p18f23k20.asm
                    CCPR2   0x000fbb       data     extern E:\3.46\pic18-lt\cxx-framework\src\traditional\proc\p18f23k20.asm
                   CCPR2H   0x000fbc       data     extern E:\3.46\pic18-lt\cxx-framework\src\traditional\proc\p18f23k20.asm
                  CCP1CON   0x000fbd       data     extern E:\3.46\pic18-lt\cxx-framework\src\traditional\proc\p18f23k20.asm
              CCP1CONbits   0x000fbd       data     extern E:\3.46\pic18-lt\cxx-framework\src\traditional\proc\p18f23k20.asm
                    CCPR1   0x000fbe       data     extern E:\3.46\pic18-lt\cxx-framework\src\traditional\proc\p18f23k20.asm
                   CCPR1L   0x000fbe       data     extern E:\3.46\pic18-lt\cxx-framework\src\traditional\proc\p18f23k20.asm
                   CCPR1H   0x000fbf       data     extern E:\3.46\pic18-lt\cxx-framework\src\traditional\proc\p18f23k20.asm
               ADCON2bits   0x000fc0       data     extern E:\3.46\pic18-lt\cxx-framework\src\traditional\proc\p18f23k20.asm
                   ADCON2   0x000fc0       data     extern E:\3.46\pic18-lt\cxx-framework\src\traditional\proc\p18f23k20.asm
               ADCON1bits   0x000fc1       data     extern E:\3.46\pic18-lt\cxx-framework\src\traditional\proc\p18f23k20.asm
                   ADCON1   0x000fc1       data     extern E:\3.46\pic18-lt\cxx-framework\src\traditional\proc\p18f23k20.asm
               ADCON0bits   0x000fc2       data     extern E:\3.46\pic18-lt\cxx-framework\src\traditional\proc\p18f23k20.asm
                   ADCON0   0x000fc2       data     extern E:\3.46\pic18-lt\cxx-framework\src\traditional\proc\p18f23k20.asm
                    ADRES   0x000fc3       data     extern E:\3.46\pic18-lt\cxx-framework\src\traditional\proc\p18f23k20.asm
                   ADRESL   0x000fc3       data     extern E:\3.46\pic18-lt\cxx-framework\src\traditional\proc\p18f23k20.asm
                   ADRESH   0x000fc4       data     extern E:\3.46\pic18-lt\cxx-framework\src\traditional\proc\p18f23k20.asm
                  SSPCON2   0x000fc5       data     extern E:\3.46\pic18-lt\cxx-framework\src\traditional\proc\p18f23k20.asm
              SSPCON2bits   0x000fc5       data     extern E:\3.46\pic18-lt\cxx-framework\src\traditional\proc\p18f23k20.asm
                  SSPCON1   0x000fc6       data     extern E:\3.46\pic18-lt\cxx-framework\src\traditional\proc\p18f23k20.asm
              SSPCON1bits   0x000fc6       data     extern E:\3.46\pic18-lt\cxx-framework\src\traditional\proc\p18f23k20.asm
                  SSPSTAT   0x000fc7       data     extern E:\3.46\pic18-lt\cxx-framework\src\traditional\proc\p18f23k20.asm
              SSPSTATbits   0x000fc7       data     extern E:\3.46\pic18-lt\cxx-framework\src\traditional\proc\p18f23k20.asm
                   SSPADD   0x000fc8       data     extern E:\3.46\pic18-lt\cxx-framework\src\traditional\proc\p18f23k20.asm
                   SSPBUF   0x000fc9       data     extern E:\3.46\pic18-lt\cxx-framework\src\traditional\proc\p18f23k20.asm
                T2CONbits   0x000fca       data     extern E:\3.46\pic18-lt\cxx-framework\src\traditional\proc\p18f23k20.asm
                    T2CON   0x000fca       data     extern E:\3.46\pic18-lt\cxx-framework\src\traditional\proc\p18f23k20.asm
                      PR2   0x000fcb       data     extern E:\3.46\pic18-lt\cxx-framework\src\traditional\proc\p18f23k20.asm
                     TMR2   0x000fcc       data     extern E:\3.46\pic18-lt\cxx-framework\src\traditional\proc\p18f23k20.asm
                T1CONbits   0x000fcd       data     extern E:\3.46\pic18-lt\cxx-framework\src\traditional\proc\p18f23k20.asm
                    T1CON   0x000fcd       data     extern E:\3.46\pic18-lt\cxx-framework\src\traditional\proc\p18f23k20.asm
                    TMR1L   0x000fce       data     extern E:\3.46\pic18-lt\cxx-framework\src\traditional\proc\p18f23k20.asm
                    TMR1H   0x000fcf       data     extern E:\3.46\pic18-lt\cxx-framework\src\traditional\proc\p18f23k20.asm
                 RCONbits   0x000fd0       data     extern E:\3.46\pic18-lt\cxx-framework\src\traditional\proc\p18f23k20.asm
                     RCON   0x000fd0       data     extern E:\3.46\pic18-lt\cxx-framework\src\traditional\proc\p18f23k20.asm
               WDTCONbits   0x000fd1       data     extern E:\3.46\pic18-lt\cxx-framework\src\traditional\proc\p18f23k20.asm
                   WDTCON   0x000fd1       data     extern E:\3.46\pic18-lt\cxx-framework\src\traditional\proc\p18f23k20.asm
              HLVDCONbits   0x000fd2       data     extern E:\3.46\pic18-lt\cxx-framework\src\traditional\proc\p18f23k20.asm
                  HLVDCON   0x000fd2       data     extern E:\3.46\pic18-lt\cxx-framework\src\traditional\proc\p18f23k20.asm
                   LVDCON   0x000fd2       data     extern E:\3.46\pic18-lt\cxx-framework\src\traditional\proc\p18f23k20.asm
               LVDCONbits   0x000fd2       data     extern E:\3.46\pic18-lt\cxx-framework\src\traditional\proc\p18f23k20.asm
                   OSCCON   0x000fd3       data     extern E:\3.46\pic18-lt\cxx-framework\src\traditional\proc\p18f23k20.asm
               OSCCONbits   0x000fd3       data     extern E:\3.46\pic18-lt\cxx-framework\src\traditional\proc\p18f23k20.asm
                T0CONbits   0x000fd5       data     extern E:\3.46\pic18-lt\cxx-framework\src\traditional\proc\p18f23k20.asm
                    T0CON   0x000fd5       data     extern E:\3.46\pic18-lt\cxx-framework\src\traditional\proc\p18f23k20.asm
                    TMR0L   0x000fd6       data     extern E:\3.46\pic18-lt\cxx-framework\src\traditional\proc\p18f23k20.asm
                    TMR0H   0x000fd7       data     extern E:\3.46\pic18-lt\cxx-framework\src\traditional\proc\p18f23k20.asm
               STATUSbits   0x000fd8       data     extern E:\3.46\pic18-lt\cxx-framework\src\traditional\proc\p18f23k20.asm
                   STATUS   0x000fd8       data     extern E:\3.46\pic18-lt\cxx-framework\src\traditional\proc\p18f23k20.asm
                    FSR2L   0x000fd9       data     extern E:\3.46\pic18-lt\cxx-framework\src\traditional\proc\p18f23k20.asm
                     FSR2   0x000fd9       data     extern E:\3.46\pic18-lt\cxx-framework\src\traditional\proc\p18f23k20.asm
                    FSR2H   0x000fda       data     extern E:\3.46\pic18-lt\cxx-framework\src\traditional\proc\p18f23k20.asm
                   PLUSW2   0x000fdb       data     extern E:\3.46\pic18-lt\cxx-framework\src\traditional\proc\p18f23k20.asm
                  PREINC2   0x000fdc       data     extern E:\3.46\pic18-lt\cxx-framework\src\traditional\proc\p18f23k20.asm
                 POSTDEC2   0x000fdd       data     extern E:\3.46\pic18-lt\cxx-framework\src\traditional\proc\p18f23k20.asm
                 POSTINC2   0x000fde       data     extern E:\3.46\pic18-lt\cxx-framework\src\traditional\proc\p18f23k20.asm
                    INDF2   0x000fdf       data     extern E:\3.46\pic18-lt\cxx-framework\src\traditional\proc\p18f23k20.asm
                      BSR   0x000fe0       data     extern E:\3.46\pic18-lt\cxx-framework\src\traditional\proc\p18f23k20.asm
                    FSR1L   0x000fe1       data     extern E:\3.46\pic18-lt\cxx-framework\src\traditional\proc\p18f23k20.asm
                     FSR1   0x000fe1       data     extern E:\3.46\pic18-lt\cxx-framework\src\traditional\proc\p18f23k20.asm
                    FSR1H   0x000fe2       data     extern E:\3.46\pic18-lt\cxx-framework\src\traditional\proc\p18f23k20.asm
                   PLUSW1   0x000fe3       data     extern E:\3.46\pic18-lt\cxx-framework\src\traditional\proc\p18f23k20.asm
                  PREINC1   0x000fe4       data     extern E:\3.46\pic18-lt\cxx-framework\src\traditional\proc\p18f23k20.asm
                 POSTDEC1   0x000fe5       data     extern E:\3.46\pic18-lt\cxx-framework\src\traditional\proc\p18f23k20.asm
                 POSTINC1   0x000fe6       data     extern E:\3.46\pic18-lt\cxx-framework\src\traditional\proc\p18f23k20.asm
                    INDF1   0x000fe7       data     extern E:\3.46\pic18-lt\cxx-framework\src\traditional\proc\p18f23k20.asm
                        W   0x000fe8       data     extern E:\3.46\pic18-lt\cxx-framework\src\traditional\proc\p18f23k20.asm
                     WREG   0x000fe8       data     extern E:\3.46\pic18-lt\cxx-framework\src\traditional\proc\p18f23k20.asm
                     FSR0   0x000fe9       data     extern E:\3.46\pic18-lt\cxx-framework\src\traditional\proc\p18f23k20.asm
                    FSR0L   0x000fe9       data     extern E:\3.46\pic18-lt\cxx-framework\src\traditional\proc\p18f23k20.asm
                    FSR0H   0x000fea       data     extern E:\3.46\pic18-lt\cxx-framework\src\traditional\proc\p18f23k20.asm
                   PLUSW0   0x000feb       data     extern E:\3.46\pic18-lt\cxx-framework\src\traditional\proc\p18f23k20.asm
                  PREINC0   0x000fec       data     extern E:\3.46\pic18-lt\cxx-framework\src\traditional\proc\p18f23k20.asm
                 POSTDEC0   0x000fed       data     extern E:\3.46\pic18-lt\cxx-framework\src\traditional\proc\p18f23k20.asm
                 POSTINC0   0x000fee       data     extern E:\3.46\pic18-lt\cxx-framework\src\traditional\proc\p18f23k20.asm
                    INDF0   0x000fef       data     extern E:\3.46\pic18-lt\cxx-framework\src\traditional\proc\p18f23k20.asm
                  INTCON3   0x000ff0       data     extern E:\3.46\pic18-lt\cxx-framework\src\traditional\proc\p18f23k20.asm
              INTCON3bits   0x000ff0       data     extern E:\3.46\pic18-lt\cxx-framework\src\traditional\proc\p18f23k20.asm
              INTCON2bits   0x000ff1       data     extern E:\3.46\pic18-lt\cxx-framework\src\traditional\proc\p18f23k20.asm
                  INTCON2   0x000ff1       data     extern E:\3.46\pic18-lt\cxx-framework\src\traditional\proc\p18f23k20.asm
                   INTCON   0x000ff2       data     extern E:\3.46\pic18-lt\cxx-framework\src\traditional\proc\p18f23k20.asm
               INTCONbits   0x000ff2       data     extern E:\3.46\pic18-lt\cxx-framework\src\traditional\proc\p18f23k20.asm
                     PROD   0x000ff3       data     extern E:\3.46\pic18-lt\cxx-framework\src\traditional\proc\p18f23k20.asm
                    PRODL   0x000ff3       data     extern E:\3.46\pic18-lt\cxx-framework\src\traditional\proc\p18f23k20.asm
                    PRODH   0x000ff4       data     extern E:\3.46\pic18-lt\cxx-framework\src\traditional\proc\p18f23k20.asm
                   TABLAT   0x000ff5       data     extern E:\3.46\pic18-lt\cxx-framework\src\traditional\proc\p18f23k20.asm
                  TBLPTRL   0x000ff6       data     extern E:\3.46\pic18-lt\cxx-framework\src\traditional\proc\p18f23k20.asm
                   TBLPTR   0x000ff6       data     extern E:\3.46\pic18-lt\cxx-framework\src\traditional\proc\p18f23k20.asm
                  TBLPTRH   0x000ff7       data     extern E:\3.46\pic18-lt\cxx-framework\src\traditional\proc\p18f23k20.asm
                  TBLPTRU   0x000ff8       data     extern E:\3.46\pic18-lt\cxx-framework\src\traditional\proc\p18f23k20.asm
                       PC   0x000ff9       data     extern E:\3.46\pic18-lt\cxx-framework\src\traditional\proc\p18f23k20.asm
                      PCL   0x000ff9       data     extern E:\3.46\pic18-lt\cxx-framework\src\traditional\proc\p18f23k20.asm
                   PCLATH   0x000ffa       data     extern E:\3.46\pic18-lt\cxx-framework\src\traditional\proc\p18f23k20.asm
                   PCLATU   0x000ffb       data     extern E:\3.46\pic18-lt\cxx-framework\src\traditional\proc\p18f23k20.asm
                   STKPTR   0x000ffc       data     extern E:\3.46\pic18-lt\cxx-framework\src\traditional\proc\p18f23k20.asm
               STKPTRbits   0x000ffc       data     extern E:\3.46\pic18-lt\cxx-framework\src\traditional\proc\p18f23k20.asm
                     TOSL   0x000ffd       data     extern E:\3.46\pic18-lt\cxx-framework\src\traditional\proc\p18f23k20.asm
                      TOS   0x000ffd       data     extern E:\3.46\pic18-lt\cxx-framework\src\traditional\proc\p18f23k20.asm
                     TOSH   0x000ffe       data     extern E:\3.46\pic18-lt\cxx-framework\src\traditional\proc\p18f23k20.asm
                     TOSU   0x000fff       data     extern E:\3.46\pic18-lt\cxx-framework\src\traditional\proc\p18f23k20.asm


